---
triple:          'arm64-apple-darwin'
binary-path:     cyoa-step2
relocations:
  - { offsetInCU: 0xDB7B, offset: 0xDB7B, size: 0x8, addend: 0x0, symName: __ZNSt3__16copy_nB7v160006IPKcmPcEENS_9enable_ifIXsr33__is_cpp17_random_access_iteratorIT_EE5valueET1_E4typeES5_T0_S6_, symObjAddr: 0x4100, symBinAddr: 0x1000067D0, symSize: 0x44 }
  - { offsetInCU: 0xDC22, offset: 0xDC22, size: 0x8, addend: 0x0, symName: __ZNSt3__124__put_character_sequenceB7v160006IcNS_11char_traitsIcEEEERNS_13basic_ostreamIT_T0_EES7_PKS4_m, symObjAddr: 0x4A8C, symBinAddr: 0x10000715C, symSize: 0x1F4 }
  - { offsetInCU: 0xDDB6, offset: 0xDDB6, size: 0x8, addend: 0x0, symName: __ZNSt3__17advanceB7v160006IPNS_4pairImNS_12basic_stringIcNS_11char_traitsIcEENS_9allocatorIcEEEEEEmmvEEvRT_T0_, symObjAddr: 0x7CA8, symBinAddr: 0x10000A378, symSize: 0x50 }
  - { offsetInCU: 0xE1A5, offset: 0xE1A5, size: 0x8, addend: 0x0, symName: __ZNSt3__17advanceB7v160006INS_21__tree_const_iteratorINS_12__value_typeINS_12basic_stringIcNS_11char_traitsIcEENS_9allocatorIcEEEElEEPNS_11__tree_nodeIS9_PvEElEEllvEEvRT_T0_, symObjAddr: 0xA670, symBinAddr: 0x10000CD40, symSize: 0x50 }
  - { offsetInCU: 0xE236, offset: 0xE236, size: 0x8, addend: 0x0, symName: __ZNSt3__17advanceB7v160006INS_21__tree_const_iteratorINS_12__value_typeIm9ConditionEEPNS_11__tree_nodeIS4_PvEElEEllvEEvRT_T0_, symObjAddr: 0xC028, symBinAddr: 0x10000E6F8, symSize: 0x50 }
  - { offsetInCU: 0x10DB4, offset: 0x10DB4, size: 0x8, addend: 0x0, symName: __ZNSt3__1lsB7v160006INS_11char_traitsIcEEEERNS_13basic_ostreamIcT_EES6_PKc, symObjAddr: 0x110, symBinAddr: 0x1000027E0, symSize: 0x48 }
  - { offsetInCU: 0x10DFA, offset: 0x10DFA, size: 0x8, addend: 0x0, symName: __ZNSt3__14endlB7v160006IcNS_11char_traitsIcEEEERNS_13basic_ostreamIT_T0_EES7_, symObjAddr: 0x184, symBinAddr: 0x100002854, symSize: 0x58 }
  - { offsetInCU: 0x12780, offset: 0x12780, size: 0x8, addend: 0x0, symName: __ZNSt3__130__libcpp_is_constant_evaluatedB7v160006Ev, symObjAddr: 0x207C, symBinAddr: 0x10000474C, symSize: 0xC }
  - { offsetInCU: 0x1279D, offset: 0x1279D, size: 0x8, addend: 0x0, symName: __ZNSt3__119__libcpp_deallocateB7v160006EPvmm, symObjAddr: 0x2088, symBinAddr: 0x100004758, symSize: 0x30 }
  - { offsetInCU: 0x127E5, offset: 0x127E5, size: 0x8, addend: 0x0, symName: __ZNSt3__127__do_deallocate_handle_sizeB7v160006IJEEEvPvmDpT_, symObjAddr: 0x20B8, symBinAddr: 0x100004788, symSize: 0x28 }
  - { offsetInCU: 0x12823, offset: 0x12823, size: 0x8, addend: 0x0, symName: __ZNSt3__124__libcpp_operator_deleteB7v160006IJPvEEEvDpT_, symObjAddr: 0x20E0, symBinAddr: 0x1000047B0, symSize: 0x24 }
  - { offsetInCU: 0x12858, offset: 0x12858, size: 0x8, addend: 0x0, symName: __ZNSt3__118__debug_db_erase_cB7v160006INS_6vectorINS_4pairImNS_12basic_stringIcNS_11char_traitsIcEENS_9allocatorIcEEEEEENS6_IS9_EEEEEEvPT_, symObjAddr: 0x26D0, symBinAddr: 0x100004DA0, symSize: 0x10 }
  - { offsetInCU: 0x12889, offset: 0x12889, size: 0x8, addend: 0x0, symName: __ZNSt3__112__to_addressB7v160006INS_4pairImNS_12basic_stringIcNS_11char_traitsIcEENS_9allocatorIcEEEEEEEEPT_SA_, symObjAddr: 0x2814, symBinAddr: 0x100004EE4, symSize: 0x14 }
  - { offsetInCU: 0x128BE, offset: 0x128BE, size: 0x8, addend: 0x0, symName: __ZNSt3__1plB7v160006IcNS_11char_traitsIcEENS_9allocatorIcEEEENS_12basic_stringIT_T0_T1_EERKS9_PKS6_, symObjAddr: 0x2B58, symBinAddr: 0x100005228, symSize: 0x11C }
  - { offsetInCU: 0x13167, offset: 0x13167, size: 0x8, addend: 0x0, symName: __ZNSt3__1lsB7v160006IcNS_11char_traitsIcEENS_9allocatorIcEEEERNS_13basic_ostreamIT_T0_EES9_RKNS_12basic_stringIS6_S7_T1_EE, symObjAddr: 0x2E40, symBinAddr: 0x100005510, symSize: 0x4C }
  - { offsetInCU: 0x131BF, offset: 0x131BF, size: 0x8, addend: 0x0, symName: __ZNSt3__17getlineB7v160006IcNS_11char_traitsIcEENS_9allocatorIcEEEERNS_13basic_istreamIT_T0_EES9_RNS_12basic_stringIS6_S7_T1_EE, symObjAddr: 0x2EB8, symBinAddr: 0x100005588, symSize: 0x5C }
  - { offsetInCU: 0x13217, offset: 0x13217, size: 0x8, addend: 0x0, symName: __ZNSt3__1lsB7v160006INS_11char_traitsIcEEEERNS_13basic_ostreamIcT_EES6_c, symObjAddr: 0x306C, symBinAddr: 0x10000573C, symSize: 0x34 }
  - { offsetInCU: 0x1325D, offset: 0x1325D, size: 0x8, addend: 0x0, symName: __ZNSt3__1plB7v160006IcNS_11char_traitsIcEENS_9allocatorIcEEEENS_12basic_stringIT_T0_T1_EERKS9_SB_, symObjAddr: 0x30A0, symBinAddr: 0x100005770, symSize: 0x134 }
  - { offsetInCU: 0x132FE, offset: 0x132FE, size: 0x8, addend: 0x0, symName: __ZNSt3__112__to_addressB7v160006IcEEPT_S2_, symObjAddr: 0x35A8, symBinAddr: 0x100005C78, symSize: 0x14 }
  - { offsetInCU: 0x13333, offset: 0x13333, size: 0x8, addend: 0x0, symName: __ZNSt3__118__constexpr_strlenB7v160006EPKc, symObjAddr: 0x3818, symBinAddr: 0x100005EE8, symSize: 0x24 }
  - { offsetInCU: 0x1335F, offset: 0x1335F, size: 0x8, addend: 0x0, symName: __ZNSt3__119__debug_db_insert_cB7v160006INS_12basic_stringIcNS_11char_traitsIcEENS_9allocatorIcEEEEEEvPT_, symObjAddr: 0x3D7C, symBinAddr: 0x10000644C, symSize: 0x10 }
  - { offsetInCU: 0x13592, offset: 0x13592, size: 0x8, addend: 0x0, symName: __ZNSt3__120__throw_length_errorB7v160006EPKc, symObjAddr: 0x3E4C, symBinAddr: 0x10000651C, symSize: 0x64 }
  - { offsetInCU: 0x135BA, offset: 0x135BA, size: 0x8, addend: 0x0, symName: __ZNSt3__117__libcpp_allocateB7v160006Emm, symObjAddr: 0x4018, symBinAddr: 0x1000066E8, symSize: 0x28 }
  - { offsetInCU: 0x135F7, offset: 0x135F7, size: 0x8, addend: 0x0, symName: __ZNSt3__121__libcpp_operator_newB7v160006IJmEEEPvDpT_, symObjAddr: 0x4040, symBinAddr: 0x100006710, symSize: 0x24 }
  - { offsetInCU: 0x13663, offset: 0x13663, size: 0x8, addend: 0x0, symName: __ZNSt3__14copyB7v160006IPKcPcEET0_T_S5_S4_, symObjAddr: 0x4144, symBinAddr: 0x100006814, symSize: 0x40 }
  - { offsetInCU: 0x136BD, offset: 0x136BD, size: 0x8, addend: 0x0, symName: __ZNSt3__16__copyB7v160006INS_17_ClassicAlgPolicyEPKcS3_PcEENS_4pairIT0_T2_EES6_T1_S7_, symObjAddr: 0x4184, symBinAddr: 0x100006854, symSize: 0x44 }
  - { offsetInCU: 0x13729, offset: 0x13729, size: 0x8, addend: 0x0, symName: __ZNSt3__123__dispatch_copy_or_moveB7v160006INS_17_ClassicAlgPolicyENS_11__copy_loopIS1_EENS_14__copy_trivialEPKcS6_PcEENS_4pairIT2_T4_EES9_T3_SA_, symObjAddr: 0x41C8, symBinAddr: 0x100006898, symSize: 0x54 }
  - { offsetInCU: 0x137A7, offset: 0x137A7, size: 0x8, addend: 0x0, symName: __ZNSt3__121__unwrap_and_dispatchB7v160006INS_10__overloadINS_11__copy_loopINS_17_ClassicAlgPolicyEEENS_14__copy_trivialEEEPKcS8_PcLi0EEENS_4pairIT0_T2_EESB_T1_SC_, symObjAddr: 0x421C, symBinAddr: 0x1000068EC, symSize: 0xB4 }
  - { offsetInCU: 0x13835, offset: 0x13835, size: 0x8, addend: 0x0, symName: __ZNSt3__114__unwrap_rangeB7v160006IPKcS2_EENS_4pairIT0_S4_EET_S6_, symObjAddr: 0x42D0, symBinAddr: 0x1000069A0, symSize: 0x60 }
  - { offsetInCU: 0x13974, offset: 0x13974, size: 0x8, addend: 0x0, symName: __ZNSt3__113__unwrap_iterB7v160006IPcNS_18__unwrap_iter_implIS1_Lb1EEELi0EEEDTclsrT0_8__unwrapclsr3stdE7declvalIT_EEEES5_, symObjAddr: 0x4378, symBinAddr: 0x100006A48, symSize: 0x24 }
  - { offsetInCU: 0x139B8, offset: 0x139B8, size: 0x8, addend: 0x0, symName: __ZNSt3__19make_pairB7v160006IPKcPcEENS_4pairINS_18__unwrap_ref_decayIT_E4typeENS5_IT0_E4typeEEEOS6_OS9_, symObjAddr: 0x439C, symBinAddr: 0x100006A6C, symSize: 0x38 }
  - { offsetInCU: 0x13A07, offset: 0x13A07, size: 0x8, addend: 0x0, symName: __ZNSt3__114__rewrap_rangeB7v160006IPKcS2_EET_S3_T0_, symObjAddr: 0x43D4, symBinAddr: 0x100006AA4, symSize: 0x2C }
  - { offsetInCU: 0x13A53, offset: 0x13A53, size: 0x8, addend: 0x0, symName: __ZNSt3__113__rewrap_iterB7v160006IPcS1_NS_18__unwrap_iter_implIS1_Lb1EEEEET_S4_T0_, symObjAddr: 0x4400, symBinAddr: 0x100006AD0, symSize: 0x50 }
  - { offsetInCU: 0x13AA8, offset: 0x13AA8, size: 0x8, addend: 0x0, symName: __ZNSt3__19make_pairB7v160006IPKcS2_EENS_4pairINS_18__unwrap_ref_decayIT_E4typeENS4_IT0_E4typeEEEOS5_OS8_, symObjAddr: 0x4450, symBinAddr: 0x100006B20, symSize: 0x38 }
  - { offsetInCU: 0x13AF7, offset: 0x13AF7, size: 0x8, addend: 0x0, symName: __ZNSt3__113__unwrap_iterB7v160006IPKcNS_18__unwrap_iter_implIS2_Lb1EEELi0EEEDTclsrT0_8__unwrapclsr3stdE7declvalIT_EEEES6_, symObjAddr: 0x4488, symBinAddr: 0x100006B58, symSize: 0x24 }
  - { offsetInCU: 0x13C3B, offset: 0x13C3B, size: 0x8, addend: 0x0, symName: __ZNSt3__112__to_addressB7v160006IKcEEPT_S3_, symObjAddr: 0x4540, symBinAddr: 0x100006C10, symSize: 0x14 }
  - { offsetInCU: 0x13C70, offset: 0x13C70, size: 0x8, addend: 0x0, symName: __ZNSt3__119__copy_trivial_implB7v160006IKccEENS_4pairIPT_PT0_EES4_S4_S6_, symObjAddr: 0x4554, symBinAddr: 0x100006C24, symSize: 0x7C }
  - { offsetInCU: 0x13CD8, offset: 0x13CD8, size: 0x8, addend: 0x0, symName: __ZNSt3__19make_pairB7v160006IRPKcPcEENS_4pairINS_18__unwrap_ref_decayIT_E4typeENS6_IT0_E4typeEEEOS7_OSA_, symObjAddr: 0x45D0, symBinAddr: 0x100006CA0, symSize: 0x38 }
  - { offsetInCU: 0x13D7A, offset: 0x13D7A, size: 0x8, addend: 0x0, symName: __ZNSt3__113__rewrap_iterB7v160006IPKcS2_NS_18__unwrap_iter_implIS2_Lb1EEEEET_S5_T0_, symObjAddr: 0x469C, symBinAddr: 0x100006D6C, symSize: 0x50 }
  - { offsetInCU: 0x13E02, offset: 0x13E02, size: 0x8, addend: 0x0, symName: __ZNSt3__16fill_nB7v160006IPcmcEET_S2_T0_RKT1_, symObjAddr: 0x4834, symBinAddr: 0x100006F04, symSize: 0x44 }
  - { offsetInCU: 0x13E65, offset: 0x13E65, size: 0x8, addend: 0x0, symName: __ZNSt3__18__fill_nB7v160006IPcmcEET_S2_T0_RKT1_, symObjAddr: 0x4878, symBinAddr: 0x100006F48, symSize: 0x64 }
  - { offsetInCU: 0x13EC8, offset: 0x13EC8, size: 0x8, addend: 0x0, symName: __ZNSt3__121__convert_to_integralB7v160006Em, symObjAddr: 0x48DC, symBinAddr: 0x100006FAC, symSize: 0x14 }
  - { offsetInCU: 0x13EF4, offset: 0x13EF4, size: 0x8, addend: 0x0, symName: __ZNSt3__116__pad_and_outputB7v160006IcNS_11char_traitsIcEEEENS_19ostreambuf_iteratorIT_T0_EES6_PKS4_S8_S8_RNS_8ios_baseES4_, symObjAddr: 0x4C9C, symBinAddr: 0x10000736C, symSize: 0x248 }
  - { offsetInCU: 0x13FC3, offset: 0x13FC3, size: 0x8, addend: 0x0, symName: __ZNSt3__19use_facetB7v160006INS_5ctypeIcEEEERKT_RKNS_6localeE, symObjAddr: 0x5304, symBinAddr: 0x1000079D4, symSize: 0x2C }
  - { offsetInCU: 0x14492, offset: 0x14492, size: 0x8, addend: 0x0, symName: __ZNSt3__17getlineB7v160006IcNS_11char_traitsIcEENS_9allocatorIcEEEERNS_13basic_istreamIT_T0_EES9_RNS_12basic_stringIS6_S7_T1_EES6_, symObjAddr: 0x545C, symBinAddr: 0x100007B2C, symSize: 0x238 }
  - { offsetInCU: 0x14550, offset: 0x14550, size: 0x8, addend: 0x0, symName: __ZNSt3__125__debug_db_invalidate_allB7v160006INS_12basic_stringIcNS_11char_traitsIcEENS_9allocatorIcEEEEEEvPT_, symObjAddr: 0x588C, symBinAddr: 0x100007F5C, symSize: 0x10 }
  - { offsetInCU: 0x14581, offset: 0x14581, size: 0x8, addend: 0x0, symName: __ZNSt3__123__str_find_first_not_ofB7v160006IcmNS_11char_traitsIcEELm18446744073709551615EEET0_PKT_S3_S6_S3_S3_, symObjAddr: 0x593C, symBinAddr: 0x10000800C, symSize: 0xDC }
  - { offsetInCU: 0x14653, offset: 0x14653, size: 0x8, addend: 0x0, symName: __ZNSt3__123__constexpr_char_memchrB7v160006EPKcim, symObjAddr: 0x5A9C, symBinAddr: 0x10000816C, symSize: 0x34 }
  - { offsetInCU: 0x146B7, offset: 0x146B7, size: 0x8, addend: 0x0, symName: __ZNSt3__1neB7v160006IcNS_11char_traitsIcEEEEbRKNS_19istreambuf_iteratorIT_T0_EES8_, symObjAddr: 0x5D04, symBinAddr: 0x1000083D4, symSize: 0x34 }
  - { offsetInCU: 0x14703, offset: 0x14703, size: 0x8, addend: 0x0, symName: __ZNSt3__119__debug_db_insert_cB7v160006INS_6vectorINS_4pairImNS_12basic_stringIcNS_11char_traitsIcEENS_9allocatorIcEEEEEENS6_IS9_EEEEEEvPT_, symObjAddr: 0x617C, symBinAddr: 0x10000884C, symSize: 0x10 }
  - { offsetInCU: 0x14752, offset: 0x14752, size: 0x8, addend: 0x0, symName: __ZNSt3__127__tree_balance_after_insertB7v160006IPNS_16__tree_node_baseIPvEEEEvT_S5_, symObjAddr: 0x7174, symBinAddr: 0x100009844, symSize: 0x340 }
  - { offsetInCU: 0x147C6, offset: 0x147C6, size: 0x8, addend: 0x0, symName: __ZNSt3__120__tree_is_left_childB7v160006IPNS_16__tree_node_baseIPvEEEEbT_, symObjAddr: 0x74F4, symBinAddr: 0x100009BC4, symSize: 0x2C }
  - { offsetInCU: 0x147FB, offset: 0x147FB, size: 0x8, addend: 0x0, symName: __ZNSt3__118__tree_left_rotateB7v160006IPNS_16__tree_node_baseIPvEEEEvT_, symObjAddr: 0x7520, symBinAddr: 0x100009BF0, symSize: 0xEC }
  - { offsetInCU: 0x1483D, offset: 0x1483D, size: 0x8, addend: 0x0, symName: __ZNSt3__119__tree_right_rotateB7v160006IPNS_16__tree_node_baseIPvEEEEvT_, symObjAddr: 0x760C, symBinAddr: 0x100009CDC, symSize: 0xCC }
  - { offsetInCU: 0x1487F, offset: 0x1487F, size: 0x8, addend: 0x0, symName: __ZNSt3__18distanceB7v160006IPNS_4pairImNS_12basic_stringIcNS_11char_traitsIcEENS_9allocatorIcEEEEEEEENS_15iterator_traitsIT_E15difference_typeESB_SB_, symObjAddr: 0x7C7C, symBinAddr: 0x10000A34C, symSize: 0x2C }
  - { offsetInCU: 0x148C2, offset: 0x148C2, size: 0x8, addend: 0x0, symName: __ZNSt3__14copyB7v160006IPNS_4pairImNS_12basic_stringIcNS_11char_traitsIcEENS_9allocatorIcEEEEEES9_EET0_T_SB_SA_, symObjAddr: 0x7CF8, symBinAddr: 0x10000A3C8, symSize: 0x40 }
  - { offsetInCU: 0x1491C, offset: 0x1491C, size: 0x8, addend: 0x0, symName: __ZNSt3__125__debug_db_invalidate_allB7v160006INS_6vectorINS_4pairImNS_12basic_stringIcNS_11char_traitsIcEENS_9allocatorIcEEEEEENS6_IS9_EEEEEEvPT_, symObjAddr: 0x8040, symBinAddr: 0x10000A710, symSize: 0x10 }
  - { offsetInCU: 0x1494D, offset: 0x1494D, size: 0x8, addend: 0x0, symName: __ZNSt3__110__distanceB7v160006IPNS_4pairImNS_12basic_stringIcNS_11char_traitsIcEENS_9allocatorIcEEEEEEEENS_15iterator_traitsIT_E15difference_typeESB_SB_NS_26random_access_iterator_tagE, symObjAddr: 0x8050, symBinAddr: 0x10000A720, symSize: 0x28 }
  - { offsetInCU: 0x1499A, offset: 0x1499A, size: 0x8, addend: 0x0, symName: __ZNSt3__19__advanceB7v160006IPNS_4pairImNS_12basic_stringIcNS_11char_traitsIcEENS_9allocatorIcEEEEEEEEvRT_NS_15iterator_traitsISA_E15difference_typeENS_26random_access_iterator_tagE, symObjAddr: 0x8078, symBinAddr: 0x10000A748, symSize: 0x28 }
  - { offsetInCU: 0x149E3, offset: 0x149E3, size: 0x8, addend: 0x0, symName: __ZNSt3__16__copyB7v160006INS_17_ClassicAlgPolicyEPNS_4pairImNS_12basic_stringIcNS_11char_traitsIcEENS_9allocatorIcEEEEEESA_SA_EENS2_IT0_T2_EESB_T1_SC_, symObjAddr: 0x80A0, symBinAddr: 0x10000A770, symSize: 0x44 }
  - { offsetInCU: 0x14A4F, offset: 0x14A4F, size: 0x8, addend: 0x0, symName: __ZNSt3__123__dispatch_copy_or_moveB7v160006INS_17_ClassicAlgPolicyENS_11__copy_loopIS1_EENS_14__copy_trivialEPNS_4pairImNS_12basic_stringIcNS_11char_traitsIcEENS_9allocatorIcEEEEEESD_SD_EENS5_IT2_T4_EESE_T3_SF_, symObjAddr: 0x80E4, symBinAddr: 0x10000A7B4, symSize: 0x70 }
  - { offsetInCU: 0x14ACD, offset: 0x14ACD, size: 0x8, addend: 0x0, symName: __ZNSt3__121__unwrap_and_dispatchB7v160006INS_11__copy_loopINS_17_ClassicAlgPolicyEEEPNS_4pairImNS_12basic_stringIcNS_11char_traitsIcEENS_9allocatorIcEEEEEESC_SC_Li0EEENS4_IT0_T2_EESD_T1_SE_, symObjAddr: 0x8154, symBinAddr: 0x10000A824, symSize: 0xB4 }
  - { offsetInCU: 0x14B5B, offset: 0x14B5B, size: 0x8, addend: 0x0, symName: __ZNSt3__121__unwrap_and_dispatchB7v160006INS_10__overloadINS_11__copy_loopINS_17_ClassicAlgPolicyEEENS_14__copy_trivialEEEPNS_4pairImNS_12basic_stringIcNS_11char_traitsIcEENS_9allocatorIcEEEEEESF_SF_Li0EEENS7_IT0_T2_EESG_T1_SH_, symObjAddr: 0x8208, symBinAddr: 0x10000A8D8, symSize: 0xB4 }
  - { offsetInCU: 0x14BE9, offset: 0x14BE9, size: 0x8, addend: 0x0, symName: __ZNSt3__114__unwrap_rangeB7v160006IPNS_4pairImNS_12basic_stringIcNS_11char_traitsIcEENS_9allocatorIcEEEEEES9_EENS1_IT0_SA_EET_SC_, symObjAddr: 0x82BC, symBinAddr: 0x10000A98C, symSize: 0x60 }
  - { offsetInCU: 0x14D3D, offset: 0x14D3D, size: 0x8, addend: 0x0, symName: __ZNSt3__113__unwrap_iterB7v160006IPNS_4pairImNS_12basic_stringIcNS_11char_traitsIcEENS_9allocatorIcEEEEEENS_18__unwrap_iter_implIS9_Lb1EEELi0EEEDTclsrT0_8__unwrapclsr3stdE7declvalIT_EEEESD_, symObjAddr: 0x83A4, symBinAddr: 0x10000AA74, symSize: 0x24 }
  - { offsetInCU: 0x14D81, offset: 0x14D81, size: 0x8, addend: 0x0, symName: __ZNSt3__19make_pairB7v160006IPNS_4pairImNS_12basic_stringIcNS_11char_traitsIcEENS_9allocatorIcEEEEEES9_EENS1_INS_18__unwrap_ref_decayIT_E4typeENSA_IT0_E4typeEEEOSB_OSE_, symObjAddr: 0x83C8, symBinAddr: 0x10000AA98, symSize: 0x38 }
  - { offsetInCU: 0x14DD0, offset: 0x14DD0, size: 0x8, addend: 0x0, symName: __ZNSt3__114__rewrap_rangeB7v160006IPNS_4pairImNS_12basic_stringIcNS_11char_traitsIcEENS_9allocatorIcEEEEEES9_EET_SA_T0_, symObjAddr: 0x8400, symBinAddr: 0x10000AAD0, symSize: 0x2C }
  - { offsetInCU: 0x14E1C, offset: 0x14E1C, size: 0x8, addend: 0x0, symName: __ZNSt3__113__rewrap_iterB7v160006IPNS_4pairImNS_12basic_stringIcNS_11char_traitsIcEENS_9allocatorIcEEEEEES9_NS_18__unwrap_iter_implIS9_Lb1EEEEET_SC_T0_, symObjAddr: 0x842C, symBinAddr: 0x10000AAFC, symSize: 0x50 }
  - { offsetInCU: 0x14EC4, offset: 0x14EC4, size: 0x8, addend: 0x0, symName: __ZNSt3__130__uninitialized_allocator_copyB7v160006INS_9allocatorINS_4pairImNS_12basic_stringIcNS_11char_traitsIcEENS1_IcEEEEEEEEPS8_SA_SA_EET2_RT_T0_T1_SB_, symObjAddr: 0x85E4, symBinAddr: 0x10000ACB4, symSize: 0xFC }
  - { offsetInCU: 0x14F62, offset: 0x14F62, size: 0x8, addend: 0x0, symName: __ZNSt3__122__make_exception_guardB7v160006INS_29_AllocatorDestroyRangeReverseINS_9allocatorINS_4pairImNS_12basic_stringIcNS_11char_traitsIcEENS2_IcEEEEEEEEPS9_EEEENS_28__exception_guard_exceptionsIT_EESE_, symObjAddr: 0x8750, symBinAddr: 0x10000AE20, symSize: 0x4C }
  - { offsetInCU: 0x14F98, offset: 0x14F98, size: 0x8, addend: 0x0, symName: __ZNSt3__119__allocator_destroyB7v160006INS_9allocatorINS_4pairImNS_12basic_stringIcNS_11char_traitsIcEENS1_IcEEEEEEEENS_16reverse_iteratorIPS8_EESC_EEvRT_T0_T1_, symObjAddr: 0x8A54, symBinAddr: 0x10000B124, symSize: 0x70 }
  - { offsetInCU: 0x14FFB, offset: 0x14FFB, size: 0x8, addend: 0x0, symName: __ZNSt3__1neB7v160006IPNS_4pairImNS_12basic_stringIcNS_11char_traitsIcEENS_9allocatorIcEEEEEES9_EEbRKNS_16reverse_iteratorIT_EERKNSA_IT0_EE, symObjAddr: 0x8AF8, symBinAddr: 0x10000B1C8, symSize: 0x48 }
  - { offsetInCU: 0x15047, offset: 0x15047, size: 0x8, addend: 0x0, symName: __ZNSt3__112__to_addressB7v160006INS_16reverse_iteratorIPNS_4pairImNS_12basic_stringIcNS_11char_traitsIcEENS_9allocatorIcEEEEEEEEvEENS_5decayIDTclsr19__to_address_helperIT_EE6__callclsr3stdE7declvalIRKSD_EEEEE4typeESF_, symObjAddr: 0x8B40, symBinAddr: 0x10000B210, symSize: 0x24 }
  - { offsetInCU: 0x150A6, offset: 0x150A6, size: 0x8, addend: 0x0, symName: __ZNSt3__119__allocate_at_leastB7v160006INS_9allocatorINS_4pairImNS_12basic_stringIcNS_11char_traitsIcEENS1_IcEEEEEEEEEENS_19__allocation_resultINS_16allocator_traitsIT_E7pointerEEERSC_m, symObjAddr: 0x8E9C, symBinAddr: 0x10000B56C, symSize: 0x40 }
  - { offsetInCU: 0x150E9, offset: 0x150E9, size: 0x8, addend: 0x0, symName: __ZNSt3__13minB7v160006ImEERKT_S3_S3_, symObjAddr: 0x8F88, symBinAddr: 0x10000B658, symSize: 0x2C }
  - { offsetInCU: 0x1532D, offset: 0x1532D, size: 0x8, addend: 0x0, symName: __ZNSt3__13minB7v160006ImNS_6__lessImmEEEERKT_S5_S5_T0_, symObjAddr: 0x9014, symBinAddr: 0x10000B6E4, symSize: 0x54 }
  - { offsetInCU: 0x153C2, offset: 0x153C2, size: 0x8, addend: 0x0, symName: __ZNSt3__13maxB7v160006ImEERKT_S3_S3_, symObjAddr: 0x9174, symBinAddr: 0x10000B844, symSize: 0x2C }
  - { offsetInCU: 0x15405, offset: 0x15405, size: 0x8, addend: 0x0, symName: __ZNSt3__13maxB7v160006ImNS_6__lessImmEEEERKT_S5_S5_T0_, symObjAddr: 0x91A0, symBinAddr: 0x10000B870, symSize: 0x54 }
  - { offsetInCU: 0x1545F, offset: 0x1545F, size: 0x8, addend: 0x0, symName: __ZNSt3__1neB7v160006ERKNS_20__map_const_iteratorINS_21__tree_const_iteratorINS_12__value_typeINS_12basic_stringIcNS_11char_traitsIcEENS_9allocatorIcEEEElEEPNS_11__tree_nodeIS9_PvEElEEEESH_, symObjAddr: 0x94DC, symBinAddr: 0x10000BBAC, symSize: 0x30 }
  - { offsetInCU: 0x1549C, offset: 0x1549C, size: 0x8, addend: 0x0, symName: __ZNSt3__1neB7v160006ERKNS_21__tree_const_iteratorINS_12__value_typeINS_12basic_stringIcNS_11char_traitsIcEENS_9allocatorIcEEEElEEPNS_11__tree_nodeIS8_PvEElEESF_, symObjAddr: 0x95E4, symBinAddr: 0x10000BCB4, symSize: 0x34 }
  - { offsetInCU: 0x154D9, offset: 0x154D9, size: 0x8, addend: 0x0, symName: __ZNSt3__1eqB7v160006ERKNS_21__tree_const_iteratorINS_12__value_typeINS_12basic_stringIcNS_11char_traitsIcEENS_9allocatorIcEEEElEEPNS_11__tree_nodeIS8_PvEElEESF_, symObjAddr: 0x9618, symBinAddr: 0x10000BCE8, symSize: 0x30 }
  - { offsetInCU: 0x1553A, offset: 0x1553A, size: 0x8, addend: 0x0, symName: __ZNSt3__14nextB7v160006INS_21__tree_const_iteratorINS_12__value_typeINS_12basic_stringIcNS_11char_traitsIcEENS_9allocatorIcEEEElEEPNS_11__tree_nodeIS9_PvEElEEEENS_9enable_ifIXsr25__is_cpp17_input_iteratorIT_EE5valueESG_E4typeESG_NS_15iterator_traitsISG_E15difference_typeE, symObjAddr: 0xA100, symBinAddr: 0x10000C7D0, symSize: 0x50 }
  - { offsetInCU: 0x1557D, offset: 0x1557D, size: 0x8, addend: 0x0, symName: __ZNSt3__1ltB7v160006IcNS_11char_traitsIcEENS_9allocatorIcEEEEbRKNS_12basic_stringIT_T0_T1_EESB_, symObjAddr: 0xA224, symBinAddr: 0x10000C8F4, symSize: 0x38 }
  - { offsetInCU: 0x155F9, offset: 0x155F9, size: 0x8, addend: 0x0, symName: __ZNSt3__118__constexpr_memcmpB7v160006IcEEiPKT_S3_m, symObjAddr: 0xA4E8, symBinAddr: 0x10000CBB8, symSize: 0x34 }
  - { offsetInCU: 0x1564A, offset: 0x1564A, size: 0x8, addend: 0x0, symName: __ZNSt3__116__tree_prev_iterB7v160006IPNS_16__tree_node_baseIPvEEPNS_15__tree_end_nodeIS4_EEEET_T0_, symObjAddr: 0xA584, symBinAddr: 0x10000CC54, symSize: 0x88 }
  - { offsetInCU: 0x15696, offset: 0x15696, size: 0x8, addend: 0x0, symName: __ZNSt3__110__tree_maxB7v160006IPNS_16__tree_node_baseIPvEEEET_S5_, symObjAddr: 0xA60C, symBinAddr: 0x10000CCDC, symSize: 0x40 }
  - { offsetInCU: 0x156CB, offset: 0x156CB, size: 0x8, addend: 0x0, symName: __ZNSt3__121__convert_to_integralB7v160006El, symObjAddr: 0xA6C0, symBinAddr: 0x10000CD90, symSize: 0x14 }
  - { offsetInCU: 0x156F7, offset: 0x156F7, size: 0x8, addend: 0x0, symName: __ZNSt3__19__advanceB7v160006INS_21__tree_const_iteratorINS_12__value_typeINS_12basic_stringIcNS_11char_traitsIcEENS_9allocatorIcEEEElEEPNS_11__tree_nodeIS9_PvEElEEEEvRT_NS_15iterator_traitsISF_E15difference_typeENS_26bidirectional_iterator_tagE, symObjAddr: 0xA6D4, symBinAddr: 0x10000CDA4, symSize: 0xA4 }
  - { offsetInCU: 0x15740, offset: 0x15740, size: 0x8, addend: 0x0, symName: __ZNSt3__116__tree_next_iterB7v160006IPNS_15__tree_end_nodeIPNS_16__tree_node_baseIPvEEEES5_EET_T0_, symObjAddr: 0xA7B0, symBinAddr: 0x10000CE80, symSize: 0x80 }
  - { offsetInCU: 0x1577E, offset: 0x1577E, size: 0x8, addend: 0x0, symName: __ZNSt3__110__tree_minB7v160006IPNS_16__tree_node_baseIPvEEEET_S5_, symObjAddr: 0xA830, symBinAddr: 0x10000CF00, symSize: 0x40 }
  - { offsetInCU: 0x15804, offset: 0x15804, size: 0x8, addend: 0x0, symName: __ZNSt3__1neB7v160006ERKNS_20__map_const_iteratorINS_21__tree_const_iteratorINS_12__value_typeIm9ConditionEEPNS_11__tree_nodeIS4_PvEElEEEESC_, symObjAddr: 0xB2F0, symBinAddr: 0x10000D9C0, symSize: 0x30 }
  - { offsetInCU: 0x15841, offset: 0x15841, size: 0x8, addend: 0x0, symName: __ZNSt3__1neB7v160006ERKNS_21__tree_const_iteratorINS_12__value_typeIm9ConditionEEPNS_11__tree_nodeIS3_PvEElEESA_, symObjAddr: 0xB3F8, symBinAddr: 0x10000DAC8, symSize: 0x34 }
  - { offsetInCU: 0x1587E, offset: 0x1587E, size: 0x8, addend: 0x0, symName: __ZNSt3__1eqB7v160006ERKNS_21__tree_const_iteratorINS_12__value_typeIm9ConditionEEPNS_11__tree_nodeIS3_PvEElEESA_, symObjAddr: 0xB42C, symBinAddr: 0x10000DAFC, symSize: 0x30 }
  - { offsetInCU: 0x158DF, offset: 0x158DF, size: 0x8, addend: 0x0, symName: __ZNSt3__14nextB7v160006INS_21__tree_const_iteratorINS_12__value_typeIm9ConditionEEPNS_11__tree_nodeIS4_PvEElEEEENS_9enable_ifIXsr25__is_cpp17_input_iteratorIT_EE5valueESB_E4typeESB_NS_15iterator_traitsISB_E15difference_typeE, symObjAddr: 0xBF14, symBinAddr: 0x10000E5E4, symSize: 0x50 }
  - { offsetInCU: 0x15922, offset: 0x15922, size: 0x8, addend: 0x0, symName: __ZNSt3__19__advanceB7v160006INS_21__tree_const_iteratorINS_12__value_typeIm9ConditionEEPNS_11__tree_nodeIS4_PvEElEEEEvRT_NS_15iterator_traitsISA_E15difference_typeENS_26bidirectional_iterator_tagE, symObjAddr: 0xC078, symBinAddr: 0x10000E748, symSize: 0xA4 }
  - { offsetInCU: 0x159BC, offset: 0x159BC, size: 0x8, addend: 0x0, symName: __ZNSt3__1neB7v160006ERKNS_14__map_iteratorINS_15__tree_iteratorINS_12__value_typeIm4PageEEPNS_11__tree_nodeIS4_PvEElEEEESC_, symObjAddr: 0xCA80, symBinAddr: 0x10000F150, symSize: 0x30 }
  - { offsetInCU: 0x159F9, offset: 0x159F9, size: 0x8, addend: 0x0, symName: __ZNSt3__1neB7v160006ERKNS_15__tree_iteratorINS_12__value_typeIm4PageEEPNS_11__tree_nodeIS3_PvEElEESA_, symObjAddr: 0xCCE4, symBinAddr: 0x10000F3B4, symSize: 0x34 }
  - { offsetInCU: 0x15A36, offset: 0x15A36, size: 0x8, addend: 0x0, symName: __ZNSt3__1eqB7v160006ERKNS_15__tree_iteratorINS_12__value_typeIm4PageEEPNS_11__tree_nodeIS3_PvEElEESA_, symObjAddr: 0xCDC8, symBinAddr: 0x10000F498, symSize: 0x30 }
  - { offsetInCU: 0x15AD9, offset: 0x15AD9, size: 0x8, addend: 0x0, symName: __ZNSt3__19make_pairB7v160006IRmRKNS_12basic_stringIcNS_11char_traitsIcEENS_9allocatorIcEEEEEENS_4pairINS_18__unwrap_ref_decayIT_E4typeENSB_IT0_E4typeEEEOSC_OSF_, symObjAddr: 0xCEF0, symBinAddr: 0x10000F5C0, symSize: 0x40 }
  - { offsetInCU: 0x15B28, offset: 0x15B28, size: 0x8, addend: 0x0, symName: __ZNSt3__142__uninitialized_allocator_move_if_noexceptB7v160006INS_9allocatorINS_4pairImNS_12basic_stringIcNS_11char_traitsIcEENS1_IcEEEEEEEENS_16reverse_iteratorIPS8_EESC_SC_EET2_RT_T0_T1_SD_, symObjAddr: 0xD53C, symBinAddr: 0x10000FC0C, symSize: 0x124 }
  - { offsetInCU: 0x15BC8, offset: 0x15BC8, size: 0x8, addend: 0x0, symName: __ZNSt3__14swapB7v160006IPNS_4pairImNS_12basic_stringIcNS_11char_traitsIcEENS_9allocatorIcEEEEEEEEvRT_SB_, symObjAddr: 0xD660, symBinAddr: 0x10000FD30, symSize: 0x3C }
  - { offsetInCU: 0x15C19, offset: 0x15C19, size: 0x8, addend: 0x0, symName: __ZNSt3__122__make_exception_guardB7v160006INS_29_AllocatorDestroyRangeReverseINS_9allocatorINS_4pairImNS_12basic_stringIcNS_11char_traitsIcEENS2_IcEEEEEEEENS_16reverse_iteratorIPS9_EEEEEENS_28__exception_guard_exceptionsIT_EESG_, symObjAddr: 0xD69C, symBinAddr: 0x10000FD6C, symSize: 0x4C }
  - { offsetInCU: 0x15C4F, offset: 0x15C4F, size: 0x8, addend: 0x0, symName: __ZNSt3__119__allocator_destroyB7v160006INS_9allocatorINS_4pairImNS_12basic_stringIcNS_11char_traitsIcEENS1_IcEEEEEEEENS_16reverse_iteratorINSA_IPS8_EEEESD_EEvRT_T0_T1_, symObjAddr: 0xD970, symBinAddr: 0x100010040, symSize: 0x70 }
  - { offsetInCU: 0x15CB4, offset: 0x15CB4, size: 0x8, addend: 0x0, symName: __ZNSt3__1neB7v160006INS_16reverse_iteratorIPNS_4pairImNS_12basic_stringIcNS_11char_traitsIcEENS_9allocatorIcEEEEEEEESB_EEbRKNS1_IT_EERKNS1_IT0_EE, symObjAddr: 0xDA1C, symBinAddr: 0x1000100EC, symSize: 0x60 }
  - { offsetInCU: 0x15D00, offset: 0x15D00, size: 0x8, addend: 0x0, symName: __ZNSt3__112__to_addressB7v160006INS_16reverse_iteratorINS1_IPNS_4pairImNS_12basic_stringIcNS_11char_traitsIcEENS_9allocatorIcEEEEEEEEEEvEENS_5decayIDTclsr19__to_address_helperIT_EE6__callclsr3stdE7declvalIRKSE_EEEEE4typeESG_, symObjAddr: 0xDA7C, symBinAddr: 0x10001014C, symSize: 0x24 }
  - { offsetInCU: 0x15D5F, offset: 0x15D5F, size: 0x8, addend: 0x0, symName: __ZNSt3__1neB7v160006ERKNS_20__map_const_iteratorINS_21__tree_const_iteratorINS_12__value_typeIm4PageEEPNS_11__tree_nodeIS4_PvEElEEEESC_, symObjAddr: 0xDEC0, symBinAddr: 0x100010590, symSize: 0x30 }
  - { offsetInCU: 0x15D9C, offset: 0x15D9C, size: 0x8, addend: 0x0, symName: __ZNSt3__1neB7v160006ERKNS_21__tree_const_iteratorImPNS_11__tree_nodeImPvEElEES7_, symObjAddr: 0xE040, symBinAddr: 0x100010710, symSize: 0x34 }
  - { offsetInCU: 0x15DD9, offset: 0x15DD9, size: 0x8, addend: 0x0, symName: __ZNSt3__1eqB7v160006ERKNS_20__map_const_iteratorINS_21__tree_const_iteratorINS_12__value_typeIm4PageEEPNS_11__tree_nodeIS4_PvEElEEEESC_, symObjAddr: 0xE0AC, symBinAddr: 0x10001077C, symSize: 0x30 }
  - { offsetInCU: 0x15E16, offset: 0x15E16, size: 0x8, addend: 0x0, symName: __ZNSt3__1eqB7v160006ERKNS_21__tree_const_iteratorImPNS_11__tree_nodeImPvEElEES7_, symObjAddr: 0xE17C, symBinAddr: 0x10001084C, symSize: 0x30 }
  - { offsetInCU: 0x15E53, offset: 0x15E53, size: 0x8, addend: 0x0, symName: __ZNSt3__1neB7v160006ERKNS_21__tree_const_iteratorINS_12__value_typeIm4PageEEPNS_11__tree_nodeIS3_PvEElEESA_, symObjAddr: 0xE5A4, symBinAddr: 0x100010C74, symSize: 0x34 }
  - { offsetInCU: 0x15E90, offset: 0x15E90, size: 0x8, addend: 0x0, symName: __ZNSt3__1eqB7v160006ERKNS_21__tree_const_iteratorINS_12__value_typeIm4PageEEPNS_11__tree_nodeIS3_PvEElEESA_, symObjAddr: 0xE5D8, symBinAddr: 0x100010CA8, symSize: 0x30 }
  - { offsetInCU: 0x15F51, offset: 0x15F51, size: 0x8, addend: 0x0, symName: __ZNSt3__1neB7v160006ERKNS_15__tree_iteratorImPNS_11__tree_nodeImPvEElEES7_, symObjAddr: 0xFA58, symBinAddr: 0x100012128, symSize: 0x34 }
  - { offsetInCU: 0x15F8E, offset: 0x15F8E, size: 0x8, addend: 0x0, symName: __ZNSt3__1eqB7v160006ERKNS_15__tree_iteratorImPNS_11__tree_nodeImPvEElEES7_, symObjAddr: 0xFAB4, symBinAddr: 0x100012184, symSize: 0x30 }
  - { offsetInCU: 0x16217, offset: 0x16217, size: 0x8, addend: 0x0, symName: __ZSt28__throw_bad_array_new_lengthB7v160006v, symObjAddr: 0x3FE4, symBinAddr: 0x1000066B4, symSize: 0x34 }
  - { offsetInCU: 0x176FF, offset: 0x176FF, size: 0x8, addend: 0x0, symName: __ZNSt3__16vectorINS_4pairImNS_12basic_stringIcNS_11char_traitsIcEENS_9allocatorIcEEEEEENS5_IS8_EEE26__swap_out_circular_bufferERNS_14__split_bufferIS8_RS9_EE, symObjAddr: 0xD1CC, symBinAddr: 0x10000F89C, symSize: 0x118 }
  - { offsetInCU: 0x19BCB, offset: 0x19BCB, size: 0x8, addend: 0x0, symName: _main, symObjAddr: 0x0, symBinAddr: 0x1000026D0, symSize: 0x110 }
  - { offsetInCU: 0x19C1E, offset: 0x19C1E, size: 0x8, addend: 0x0, symName: __ZNSt3__113basic_ostreamIcNS_11char_traitsIcEEElsB7v160006EPFRS3_S4_E, symObjAddr: 0x158, symBinAddr: 0x100002828, symSize: 0x2C }
  - { offsetInCU: 0x19C52, offset: 0x19C52, size: 0x8, addend: 0x0, symName: __ZNSt3__112basic_stringIcNS_11char_traitsIcEENS_9allocatorIcEEEC1B7v160006IDnEEPKc, symObjAddr: 0x1DC, symBinAddr: 0x1000028AC, symSize: 0x34 }
  - { offsetInCU: 0x1A003, offset: 0x1A003, size: 0x8, addend: 0x0, symName: __ZN5StoryC1Ev, symObjAddr: 0x210, symBinAddr: 0x1000028E0, symSize: 0x2C }
  - { offsetInCU: 0x1A02D, offset: 0x1A02D, size: 0x8, addend: 0x0, symName: __ZN5Story10parseStoryERKNSt3__112basic_stringIcNS0_11char_traitsIcEENS0_9allocatorIcEEEE, symObjAddr: 0x23C, symBinAddr: 0x10000290C, symSize: 0x8BC }
  - { offsetInCU: 0x1A174, offset: 0x1A174, size: 0x8, addend: 0x0, symName: __ZNK5Story10checkStoryEv, symObjAddr: 0xAF8, symBinAddr: 0x1000031C8, symSize: 0x448 }
  - { offsetInCU: 0x1A246, offset: 0x1A246, size: 0x8, addend: 0x0, symName: __ZN5Story10beginStoryEv, symObjAddr: 0xF40, symBinAddr: 0x100003610, symSize: 0x1B8 }
  - { offsetInCU: 0x1A2A7, offset: 0x1A2A7, size: 0x8, addend: 0x0, symName: __ZN5StoryD1Ev, symObjAddr: 0x10F8, symBinAddr: 0x1000037C8, symSize: 0x2C }
  - { offsetInCU: 0x1A2D1, offset: 0x1A2D1, size: 0x8, addend: 0x0, symName: __ZN5StoryC2Ev, symObjAddr: 0x1130, symBinAddr: 0x100003800, symSize: 0x68 }
  - { offsetInCU: 0x1A2FB, offset: 0x1A2FB, size: 0x8, addend: 0x0, symName: __ZNSt3__13mapIm4PageNS_4lessImEENS_9allocatorINS_4pairIKmS1_EEEEEC1B7v160006Ev, symObjAddr: 0x1198, symBinAddr: 0x100003868, symSize: 0x2C }
  - { offsetInCU: 0x1A325, offset: 0x1A325, size: 0x8, addend: 0x0, symName: __ZNSt3__13mapINS_12basic_stringIcNS_11char_traitsIcEENS_9allocatorIcEEEElNS_4lessIS6_EENS4_INS_4pairIKS6_lEEEEEC1B7v160006Ev, symObjAddr: 0x11C4, symBinAddr: 0x100003894, symSize: 0x2C }
  - { offsetInCU: 0x1A34F, offset: 0x1A34F, size: 0x8, addend: 0x0, symName: __ZNSt3__13mapIm4PageNS_4lessImEENS_9allocatorINS_4pairIKmS1_EEEEED1B7v160006Ev, symObjAddr: 0x11F0, symBinAddr: 0x1000038C0, symSize: 0x2C }
  - { offsetInCU: 0x1A379, offset: 0x1A379, size: 0x8, addend: 0x0, symName: __ZNSt3__13mapIm4PageNS_4lessImEENS_9allocatorINS_4pairIKmS1_EEEEEC2B7v160006Ev, symObjAddr: 0x121C, symBinAddr: 0x1000038EC, symSize: 0x40 }
  - { offsetInCU: 0x1A3A3, offset: 0x1A3A3, size: 0x8, addend: 0x0, symName: __ZNSt3__119__map_value_compareImNS_12__value_typeIm4PageEENS_4lessImEELb1EEC1B7v160006ES5_, symObjAddr: 0x125C, symBinAddr: 0x10000392C, symSize: 0x2C }
  - { offsetInCU: 0x1A3DC, offset: 0x1A3DC, size: 0x8, addend: 0x0, symName: __ZNSt3__16__treeINS_12__value_typeIm4PageEENS_19__map_value_compareImS3_NS_4lessImEELb1EEENS_9allocatorIS3_EEEC1ERKS7_, symObjAddr: 0x1288, symBinAddr: 0x100003958, symSize: 0x34 }
  - { offsetInCU: 0x1A417, offset: 0x1A417, size: 0x8, addend: 0x0, symName: __ZNSt3__119__map_value_compareImNS_12__value_typeIm4PageEENS_4lessImEELb1EEC2B7v160006ES5_, symObjAddr: 0x12BC, symBinAddr: 0x10000398C, symSize: 0x14 }
  - { offsetInCU: 0x1A450, offset: 0x1A450, size: 0x8, addend: 0x0, symName: __ZNSt3__16__treeINS_12__value_typeIm4PageEENS_19__map_value_compareImS3_NS_4lessImEELb1EEENS_9allocatorIS3_EEEC2ERKS7_, symObjAddr: 0x12D0, symBinAddr: 0x1000039A0, symSize: 0x70 }
  - { offsetInCU: 0x1A48B, offset: 0x1A48B, size: 0x8, addend: 0x0, symName: __ZNSt3__117__compressed_pairINS_15__tree_end_nodeIPNS_16__tree_node_baseIPvEEEENS_9allocatorINS_11__tree_nodeINS_12__value_typeIm4PageEES3_EEEEEC1B7v160006ILb1EvEEv, symObjAddr: 0x1340, symBinAddr: 0x100003A10, symSize: 0x2C }
  - { offsetInCU: 0x1A4C5, offset: 0x1A4C5, size: 0x8, addend: 0x0, symName: __ZNSt3__117__compressed_pairImNS_19__map_value_compareImNS_12__value_typeIm4PageEENS_4lessImEELb1EEEEC1B7v160006IiRKS7_EEOT_OT0_, symObjAddr: 0x136C, symBinAddr: 0x100003A3C, symSize: 0x3C }
  - { offsetInCU: 0x1A51D, offset: 0x1A51D, size: 0x8, addend: 0x0, symName: __ZNSt3__16__treeINS_12__value_typeIm4PageEENS_19__map_value_compareImS3_NS_4lessImEELb1EEENS_9allocatorIS3_EEE10__end_nodeB7v160006Ev, symObjAddr: 0x13A8, symBinAddr: 0x100003A78, symSize: 0x2C }
  - { offsetInCU: 0x1A543, offset: 0x1A543, size: 0x8, addend: 0x0, symName: __ZNSt3__16__treeINS_12__value_typeIm4PageEENS_19__map_value_compareImS3_NS_4lessImEELb1EEENS_9allocatorIS3_EEE12__begin_nodeB7v160006Ev, symObjAddr: 0x13D4, symBinAddr: 0x100003AA4, symSize: 0x14 }
  - { offsetInCU: 0x1A569, offset: 0x1A569, size: 0x8, addend: 0x0, symName: __ZNSt3__117__compressed_pairINS_15__tree_end_nodeIPNS_16__tree_node_baseIPvEEEENS_9allocatorINS_11__tree_nodeINS_12__value_typeIm4PageEES3_EEEEEC2B7v160006ILb1EvEEv, symObjAddr: 0x13E8, symBinAddr: 0x100003AB8, symSize: 0x34 }
  - { offsetInCU: 0x1A59E, offset: 0x1A59E, size: 0x8, addend: 0x0, symName: __ZNSt3__122__compressed_pair_elemINS_15__tree_end_nodeIPNS_16__tree_node_baseIPvEEEELi0ELb0EEC2B7v160006ENS_16__value_init_tagE, symObjAddr: 0x141C, symBinAddr: 0x100003AEC, symSize: 0x2C }
  - { offsetInCU: 0x1A5D2, offset: 0x1A5D2, size: 0x8, addend: 0x0, symName: __ZNSt3__122__compressed_pair_elemINS_9allocatorINS_11__tree_nodeINS_12__value_typeIm4PageEEPvEEEELi1ELb1EEC2B7v160006ENS_16__value_init_tagE, symObjAddr: 0x1448, symBinAddr: 0x100003B18, symSize: 0x2C }
  - { offsetInCU: 0x1A606, offset: 0x1A606, size: 0x8, addend: 0x0, symName: __ZNSt3__115__tree_end_nodeIPNS_16__tree_node_baseIPvEEEC1B7v160006Ev, symObjAddr: 0x1474, symBinAddr: 0x100003B44, symSize: 0x2C }
  - { offsetInCU: 0x1A630, offset: 0x1A630, size: 0x8, addend: 0x0, symName: __ZNSt3__115__tree_end_nodeIPNS_16__tree_node_baseIPvEEEC2B7v160006Ev, symObjAddr: 0x14A0, symBinAddr: 0x100003B70, symSize: 0x18 }
  - { offsetInCU: 0x1A65A, offset: 0x1A65A, size: 0x8, addend: 0x0, symName: __ZNSt3__19allocatorINS_11__tree_nodeINS_12__value_typeIm4PageEEPvEEEC2B7v160006Ev, symObjAddr: 0x14B8, symBinAddr: 0x100003B88, symSize: 0x2C }
  - { offsetInCU: 0x1A684, offset: 0x1A684, size: 0x8, addend: 0x0, symName: __ZNSt3__116__non_trivial_ifILb1ENS_9allocatorINS_11__tree_nodeINS_12__value_typeIm4PageEEPvEEEEEC2B7v160006Ev, symObjAddr: 0x14E4, symBinAddr: 0x100003BB4, symSize: 0x14 }
  - { offsetInCU: 0x1A6AE, offset: 0x1A6AE, size: 0x8, addend: 0x0, symName: __ZNSt3__117__compressed_pairImNS_19__map_value_compareImNS_12__value_typeIm4PageEENS_4lessImEELb1EEEEC2B7v160006IiRKS7_EEOT_OT0_, symObjAddr: 0x14F8, symBinAddr: 0x100003BC8, symSize: 0x44 }
  - { offsetInCU: 0x1A706, offset: 0x1A706, size: 0x8, addend: 0x0, symName: __ZNSt3__122__compressed_pair_elemImLi0ELb0EEC2B7v160006IivEEOT_, symObjAddr: 0x153C, symBinAddr: 0x100003C0C, symSize: 0x24 }
  - { offsetInCU: 0x1A748, offset: 0x1A748, size: 0x8, addend: 0x0, symName: __ZNSt3__122__compressed_pair_elemINS_19__map_value_compareImNS_12__value_typeIm4PageEENS_4lessImEELb1EEELi1ELb1EEC2B7v160006IRKS7_vEEOT_, symObjAddr: 0x1560, symBinAddr: 0x100003C30, symSize: 0x18 }
  - { offsetInCU: 0x1A78A, offset: 0x1A78A, size: 0x8, addend: 0x0, symName: __ZNSt3__114pointer_traitsIPNS_15__tree_end_nodeIPNS_16__tree_node_baseIPvEEEEE10pointer_toB7v160006ERS6_, symObjAddr: 0x1578, symBinAddr: 0x100003C48, symSize: 0x14 }
  - { offsetInCU: 0x1A7AD, offset: 0x1A7AD, size: 0x8, addend: 0x0, symName: __ZNSt3__117__compressed_pairINS_15__tree_end_nodeIPNS_16__tree_node_baseIPvEEEENS_9allocatorINS_11__tree_nodeINS_12__value_typeIm4PageEES3_EEEEE5firstB7v160006Ev, symObjAddr: 0x158C, symBinAddr: 0x100003C5C, symSize: 0x24 }
  - { offsetInCU: 0x1A7D3, offset: 0x1A7D3, size: 0x8, addend: 0x0, symName: __ZNSt3__122__compressed_pair_elemINS_15__tree_end_nodeIPNS_16__tree_node_baseIPvEEEELi0ELb0EE5__getB7v160006Ev, symObjAddr: 0x15B0, symBinAddr: 0x100003C80, symSize: 0x14 }
  - { offsetInCU: 0x1A7F9, offset: 0x1A7F9, size: 0x8, addend: 0x0, symName: __ZNSt3__13mapINS_12basic_stringIcNS_11char_traitsIcEENS_9allocatorIcEEEElNS_4lessIS6_EENS4_INS_4pairIKS6_lEEEEEC2B7v160006Ev, symObjAddr: 0x15C4, symBinAddr: 0x100003C94, symSize: 0x40 }
  - { offsetInCU: 0x1A823, offset: 0x1A823, size: 0x8, addend: 0x0, symName: __ZNSt3__119__map_value_compareINS_12basic_stringIcNS_11char_traitsIcEENS_9allocatorIcEEEENS_12__value_typeIS6_lEENS_4lessIS6_EELb1EEC1B7v160006ESA_, symObjAddr: 0x1604, symBinAddr: 0x100003CD4, symSize: 0x2C }
  - { offsetInCU: 0x1A85C, offset: 0x1A85C, size: 0x8, addend: 0x0, symName: __ZNSt3__16__treeINS_12__value_typeINS_12basic_stringIcNS_11char_traitsIcEENS_9allocatorIcEEEElEENS_19__map_value_compareIS7_S8_NS_4lessIS7_EELb1EEENS5_IS8_EEEC1ERKSC_, symObjAddr: 0x1630, symBinAddr: 0x100003D00, symSize: 0x34 }
  - { offsetInCU: 0x1A897, offset: 0x1A897, size: 0x8, addend: 0x0, symName: __ZNSt3__119__map_value_compareINS_12basic_stringIcNS_11char_traitsIcEENS_9allocatorIcEEEENS_12__value_typeIS6_lEENS_4lessIS6_EELb1EEC2B7v160006ESA_, symObjAddr: 0x1664, symBinAddr: 0x100003D34, symSize: 0x14 }
  - { offsetInCU: 0x1A8D0, offset: 0x1A8D0, size: 0x8, addend: 0x0, symName: __ZNSt3__16__treeINS_12__value_typeINS_12basic_stringIcNS_11char_traitsIcEENS_9allocatorIcEEEElEENS_19__map_value_compareIS7_S8_NS_4lessIS7_EELb1EEENS5_IS8_EEEC2ERKSC_, symObjAddr: 0x1678, symBinAddr: 0x100003D48, symSize: 0x70 }
  - { offsetInCU: 0x1A90B, offset: 0x1A90B, size: 0x8, addend: 0x0, symName: __ZNSt3__117__compressed_pairINS_15__tree_end_nodeIPNS_16__tree_node_baseIPvEEEENS_9allocatorINS_11__tree_nodeINS_12__value_typeINS_12basic_stringIcNS_11char_traitsIcEENS7_IcEEEElEES3_EEEEEC1B7v160006ILb1EvEEv, symObjAddr: 0x16E8, symBinAddr: 0x100003DB8, symSize: 0x2C }
  - { offsetInCU: 0x1A940, offset: 0x1A940, size: 0x8, addend: 0x0, symName: __ZNSt3__117__compressed_pairImNS_19__map_value_compareINS_12basic_stringIcNS_11char_traitsIcEENS_9allocatorIcEEEENS_12__value_typeIS7_lEENS_4lessIS7_EELb1EEEEC1B7v160006IiRKSC_EEOT_OT0_, symObjAddr: 0x1714, symBinAddr: 0x100003DE4, symSize: 0x3C }
  - { offsetInCU: 0x1A998, offset: 0x1A998, size: 0x8, addend: 0x0, symName: __ZNSt3__16__treeINS_12__value_typeINS_12basic_stringIcNS_11char_traitsIcEENS_9allocatorIcEEEElEENS_19__map_value_compareIS7_S8_NS_4lessIS7_EELb1EEENS5_IS8_EEE10__end_nodeB7v160006Ev, symObjAddr: 0x1750, symBinAddr: 0x100003E20, symSize: 0x2C }
  - { offsetInCU: 0x1A9BE, offset: 0x1A9BE, size: 0x8, addend: 0x0, symName: __ZNSt3__16__treeINS_12__value_typeINS_12basic_stringIcNS_11char_traitsIcEENS_9allocatorIcEEEElEENS_19__map_value_compareIS7_S8_NS_4lessIS7_EELb1EEENS5_IS8_EEE12__begin_nodeB7v160006Ev, symObjAddr: 0x177C, symBinAddr: 0x100003E4C, symSize: 0x14 }
  - { offsetInCU: 0x1A9E4, offset: 0x1A9E4, size: 0x8, addend: 0x0, symName: __ZNSt3__117__compressed_pairINS_15__tree_end_nodeIPNS_16__tree_node_baseIPvEEEENS_9allocatorINS_11__tree_nodeINS_12__value_typeINS_12basic_stringIcNS_11char_traitsIcEENS7_IcEEEElEES3_EEEEEC2B7v160006ILb1EvEEv, symObjAddr: 0x1790, symBinAddr: 0x100003E60, symSize: 0x34 }
  - { offsetInCU: 0x1AA19, offset: 0x1AA19, size: 0x8, addend: 0x0, symName: __ZNSt3__122__compressed_pair_elemINS_9allocatorINS_11__tree_nodeINS_12__value_typeINS_12basic_stringIcNS_11char_traitsIcEENS1_IcEEEElEEPvEEEELi1ELb1EEC2B7v160006ENS_16__value_init_tagE, symObjAddr: 0x17C4, symBinAddr: 0x100003E94, symSize: 0x2C }
  - { offsetInCU: 0x1AA4D, offset: 0x1AA4D, size: 0x8, addend: 0x0, symName: __ZNSt3__19allocatorINS_11__tree_nodeINS_12__value_typeINS_12basic_stringIcNS_11char_traitsIcEENS0_IcEEEElEEPvEEEC2B7v160006Ev, symObjAddr: 0x17F0, symBinAddr: 0x100003EC0, symSize: 0x2C }
  - { offsetInCU: 0x1AA77, offset: 0x1AA77, size: 0x8, addend: 0x0, symName: __ZNSt3__116__non_trivial_ifILb1ENS_9allocatorINS_11__tree_nodeINS_12__value_typeINS_12basic_stringIcNS_11char_traitsIcEENS1_IcEEEElEEPvEEEEEC2B7v160006Ev, symObjAddr: 0x181C, symBinAddr: 0x100003EEC, symSize: 0x14 }
  - { offsetInCU: 0x1AAA1, offset: 0x1AAA1, size: 0x8, addend: 0x0, symName: __ZNSt3__117__compressed_pairImNS_19__map_value_compareINS_12basic_stringIcNS_11char_traitsIcEENS_9allocatorIcEEEENS_12__value_typeIS7_lEENS_4lessIS7_EELb1EEEEC2B7v160006IiRKSC_EEOT_OT0_, symObjAddr: 0x1830, symBinAddr: 0x100003F00, symSize: 0x44 }
  - { offsetInCU: 0x1AAF9, offset: 0x1AAF9, size: 0x8, addend: 0x0, symName: __ZNSt3__122__compressed_pair_elemINS_19__map_value_compareINS_12basic_stringIcNS_11char_traitsIcEENS_9allocatorIcEEEENS_12__value_typeIS7_lEENS_4lessIS7_EELb1EEELi1ELb1EEC2B7v160006IRKSC_vEEOT_, symObjAddr: 0x1874, symBinAddr: 0x100003F44, symSize: 0x18 }
  - { offsetInCU: 0x1AB3B, offset: 0x1AB3B, size: 0x8, addend: 0x0, symName: __ZNSt3__117__compressed_pairINS_15__tree_end_nodeIPNS_16__tree_node_baseIPvEEEENS_9allocatorINS_11__tree_nodeINS_12__value_typeINS_12basic_stringIcNS_11char_traitsIcEENS7_IcEEEElEES3_EEEEE5firstB7v160006Ev, symObjAddr: 0x188C, symBinAddr: 0x100003F5C, symSize: 0x24 }
  - { offsetInCU: 0x1AB61, offset: 0x1AB61, size: 0x8, addend: 0x0, symName: __ZNSt3__13mapIm4PageNS_4lessImEENS_9allocatorINS_4pairIKmS1_EEEEED2B7v160006Ev, symObjAddr: 0x18B0, symBinAddr: 0x100003F80, symSize: 0x2C }
  - { offsetInCU: 0x1AB8B, offset: 0x1AB8B, size: 0x8, addend: 0x0, symName: __ZNSt3__16__treeINS_12__value_typeIm4PageEENS_19__map_value_compareImS3_NS_4lessImEELb1EEENS_9allocatorIS3_EEED1Ev, symObjAddr: 0x18DC, symBinAddr: 0x100003FAC, symSize: 0x2C }
  - { offsetInCU: 0x1ABB7, offset: 0x1ABB7, size: 0x8, addend: 0x0, symName: __ZNSt3__16__treeINS_12__value_typeIm4PageEENS_19__map_value_compareImS3_NS_4lessImEELb1EEENS_9allocatorIS3_EEED2Ev, symObjAddr: 0x1908, symBinAddr: 0x100003FD8, symSize: 0x38 }
  - { offsetInCU: 0x1ABE3, offset: 0x1ABE3, size: 0x8, addend: 0x0, symName: __ZNSt3__16__treeINS_12__value_typeIm4PageEENS_19__map_value_compareImS3_NS_4lessImEELb1EEENS_9allocatorIS3_EEE7destroyEPNS_11__tree_nodeIS3_PvEE, symObjAddr: 0x1940, symBinAddr: 0x100004010, symSize: 0xC0 }
  - { offsetInCU: 0x1AC37, offset: 0x1AC37, size: 0x8, addend: 0x0, symName: __ZNKSt3__16__treeINS_12__value_typeIm4PageEENS_19__map_value_compareImS3_NS_4lessImEELb1EEENS_9allocatorIS3_EEE6__rootB7v160006Ev, symObjAddr: 0x1A00, symBinAddr: 0x1000040D0, symSize: 0x28 }
  - { offsetInCU: 0x1AC5D, offset: 0x1AC5D, size: 0x8, addend: 0x0, symName: __ZNSt3__16__treeINS_12__value_typeIm4PageEENS_19__map_value_compareImS3_NS_4lessImEELb1EEENS_9allocatorIS3_EEE12__node_allocB7v160006Ev, symObjAddr: 0x1A28, symBinAddr: 0x1000040F8, symSize: 0x28 }
  - { offsetInCU: 0x1AC83, offset: 0x1AC83, size: 0x8, addend: 0x0, symName: __ZNSt3__116allocator_traitsINS_9allocatorINS_11__tree_nodeINS_12__value_typeIm4PageEEPvEEEEE7destroyB7v160006INS_4pairIKmS4_EEvvEEvRS8_PT_, symObjAddr: 0x1A50, symBinAddr: 0x100004120, symSize: 0x28 }
  - { offsetInCU: 0x1ACBE, offset: 0x1ACBE, size: 0x8, addend: 0x0, symName: __ZNSt3__122__tree_key_value_typesINS_12__value_typeIm4PageEEE9__get_ptrB7v160006ERS3_, symObjAddr: 0x1A78, symBinAddr: 0x100004148, symSize: 0x24 }
  - { offsetInCU: 0x1ACE2, offset: 0x1ACE2, size: 0x8, addend: 0x0, symName: __ZNSt3__116allocator_traitsINS_9allocatorINS_11__tree_nodeINS_12__value_typeIm4PageEEPvEEEEE10deallocateB7v160006ERS8_PS7_m, symObjAddr: 0x1A9C, symBinAddr: 0x10000416C, symSize: 0x34 }
  - { offsetInCU: 0x1AD24, offset: 0x1AD24, size: 0x8, addend: 0x0, symName: __ZNSt3__117__compressed_pairINS_15__tree_end_nodeIPNS_16__tree_node_baseIPvEEEENS_9allocatorINS_11__tree_nodeINS_12__value_typeIm4PageEES3_EEEEE6secondB7v160006Ev, symObjAddr: 0x1AD0, symBinAddr: 0x1000041A0, symSize: 0x24 }
  - { offsetInCU: 0x1AD4A, offset: 0x1AD4A, size: 0x8, addend: 0x0, symName: __ZNSt3__122__compressed_pair_elemINS_9allocatorINS_11__tree_nodeINS_12__value_typeIm4PageEEPvEEEELi1ELb1EE5__getB7v160006Ev, symObjAddr: 0x1AF4, symBinAddr: 0x1000041C4, symSize: 0x14 }
  - { offsetInCU: 0x1AD70, offset: 0x1AD70, size: 0x8, addend: 0x0, symName: __ZNSt3__14pairIKm4PageED1Ev, symObjAddr: 0x1B08, symBinAddr: 0x1000041D8, symSize: 0x2C }
  - { offsetInCU: 0x1AD9C, offset: 0x1AD9C, size: 0x8, addend: 0x0, symName: __ZNSt3__14pairIKm4PageED2Ev, symObjAddr: 0x1B34, symBinAddr: 0x100004204, symSize: 0x30 }
  - { offsetInCU: 0x1ADC8, offset: 0x1ADC8, size: 0x8, addend: 0x0, symName: __ZN4PageD1Ev, symObjAddr: 0x1B64, symBinAddr: 0x100004234, symSize: 0x2C }
  - { offsetInCU: 0x1ADF4, offset: 0x1ADF4, size: 0x8, addend: 0x0, symName: __ZN4PageD2Ev, symObjAddr: 0x1B90, symBinAddr: 0x100004260, symSize: 0xD4 }
  - { offsetInCU: 0x1AE20, offset: 0x1AE20, size: 0x8, addend: 0x0, symName: __ZNSt3__13mapIm9ConditionNS_4lessImEENS_9allocatorINS_4pairIKmS1_EEEEED1B7v160006Ev, symObjAddr: 0x1C64, symBinAddr: 0x100004334, symSize: 0x2C }
  - { offsetInCU: 0x1AE4A, offset: 0x1AE4A, size: 0x8, addend: 0x0, symName: __ZNSt3__13mapINS_12basic_stringIcNS_11char_traitsIcEENS_9allocatorIcEEEElNS_4lessIS6_EENS4_INS_4pairIKS6_lEEEEED1B7v160006Ev, symObjAddr: 0x1C90, symBinAddr: 0x100004360, symSize: 0x2C }
  - { offsetInCU: 0x1AE74, offset: 0x1AE74, size: 0x8, addend: 0x0, symName: __ZNSt3__16vectorINS_4pairImNS_12basic_stringIcNS_11char_traitsIcEENS_9allocatorIcEEEEEENS5_IS8_EEED1B7v160006Ev, symObjAddr: 0x1CBC, symBinAddr: 0x10000438C, symSize: 0x2C }
  - { offsetInCU: 0x1AE9E, offset: 0x1AE9E, size: 0x8, addend: 0x0, symName: __ZNSt3__13mapIm9ConditionNS_4lessImEENS_9allocatorINS_4pairIKmS1_EEEEED2B7v160006Ev, symObjAddr: 0x1CE8, symBinAddr: 0x1000043B8, symSize: 0x2C }
  - { offsetInCU: 0x1AEC8, offset: 0x1AEC8, size: 0x8, addend: 0x0, symName: __ZNSt3__16__treeINS_12__value_typeIm9ConditionEENS_19__map_value_compareImS3_NS_4lessImEELb1EEENS_9allocatorIS3_EEED1Ev, symObjAddr: 0x1D14, symBinAddr: 0x1000043E4, symSize: 0x2C }
  - { offsetInCU: 0x1AEF4, offset: 0x1AEF4, size: 0x8, addend: 0x0, symName: __ZNSt3__16__treeINS_12__value_typeIm9ConditionEENS_19__map_value_compareImS3_NS_4lessImEELb1EEENS_9allocatorIS3_EEED2Ev, symObjAddr: 0x1D40, symBinAddr: 0x100004410, symSize: 0x38 }
  - { offsetInCU: 0x1AF20, offset: 0x1AF20, size: 0x8, addend: 0x0, symName: __ZNSt3__16__treeINS_12__value_typeIm9ConditionEENS_19__map_value_compareImS3_NS_4lessImEELb1EEENS_9allocatorIS3_EEE7destroyEPNS_11__tree_nodeIS3_PvEE, symObjAddr: 0x1D78, symBinAddr: 0x100004448, symSize: 0xC0 }
  - { offsetInCU: 0x1AF74, offset: 0x1AF74, size: 0x8, addend: 0x0, symName: __ZNKSt3__16__treeINS_12__value_typeIm9ConditionEENS_19__map_value_compareImS3_NS_4lessImEELb1EEENS_9allocatorIS3_EEE6__rootB7v160006Ev, symObjAddr: 0x1E38, symBinAddr: 0x100004508, symSize: 0x28 }
  - { offsetInCU: 0x1AF9A, offset: 0x1AF9A, size: 0x8, addend: 0x0, symName: __ZNSt3__16__treeINS_12__value_typeIm9ConditionEENS_19__map_value_compareImS3_NS_4lessImEELb1EEENS_9allocatorIS3_EEE12__node_allocB7v160006Ev, symObjAddr: 0x1E60, symBinAddr: 0x100004530, symSize: 0x28 }
  - { offsetInCU: 0x1AFC0, offset: 0x1AFC0, size: 0x8, addend: 0x0, symName: __ZNSt3__116allocator_traitsINS_9allocatorINS_11__tree_nodeINS_12__value_typeIm9ConditionEEPvEEEEE7destroyB7v160006INS_4pairIKmS4_EEvvEEvRS8_PT_, symObjAddr: 0x1E88, symBinAddr: 0x100004558, symSize: 0x28 }
  - { offsetInCU: 0x1AFFB, offset: 0x1AFFB, size: 0x8, addend: 0x0, symName: __ZNSt3__122__tree_key_value_typesINS_12__value_typeIm9ConditionEEE9__get_ptrB7v160006ERS3_, symObjAddr: 0x1EB0, symBinAddr: 0x100004580, symSize: 0x24 }
  - { offsetInCU: 0x1B01F, offset: 0x1B01F, size: 0x8, addend: 0x0, symName: __ZNSt3__116allocator_traitsINS_9allocatorINS_11__tree_nodeINS_12__value_typeIm9ConditionEEPvEEEEE10deallocateB7v160006ERS8_PS7_m, symObjAddr: 0x1ED4, symBinAddr: 0x1000045A4, symSize: 0x34 }
  - { offsetInCU: 0x1B061, offset: 0x1B061, size: 0x8, addend: 0x0, symName: __ZNSt3__117__compressed_pairINS_15__tree_end_nodeIPNS_16__tree_node_baseIPvEEEENS_9allocatorINS_11__tree_nodeINS_12__value_typeIm9ConditionEES3_EEEEE6secondB7v160006Ev, symObjAddr: 0x1F08, symBinAddr: 0x1000045D8, symSize: 0x24 }
  - { offsetInCU: 0x1B087, offset: 0x1B087, size: 0x8, addend: 0x0, symName: __ZNSt3__122__compressed_pair_elemINS_9allocatorINS_11__tree_nodeINS_12__value_typeIm9ConditionEEPvEEEELi1ELb1EE5__getB7v160006Ev, symObjAddr: 0x1F2C, symBinAddr: 0x1000045FC, symSize: 0x14 }
  - { offsetInCU: 0x1B0AD, offset: 0x1B0AD, size: 0x8, addend: 0x0, symName: __ZNSt3__14pairIKm9ConditionED1Ev, symObjAddr: 0x1F40, symBinAddr: 0x100004610, symSize: 0x2C }
  - { offsetInCU: 0x1B0D9, offset: 0x1B0D9, size: 0x8, addend: 0x0, symName: __ZNSt3__14pairIKm9ConditionED2Ev, symObjAddr: 0x1F6C, symBinAddr: 0x10000463C, symSize: 0x30 }
  - { offsetInCU: 0x1B10A, offset: 0x1B10A, size: 0x8, addend: 0x0, symName: __ZN9ConditionD1Ev, symObjAddr: 0x1F9C, symBinAddr: 0x10000466C, symSize: 0x2C }
  - { offsetInCU: 0x1B136, offset: 0x1B136, size: 0x8, addend: 0x0, symName: __ZN9ConditionD2Ev, symObjAddr: 0x1FC8, symBinAddr: 0x100004698, symSize: 0x2C }
  - { offsetInCU: 0x1B162, offset: 0x1B162, size: 0x8, addend: 0x0, symName: __ZNSt3__112__value_typeIm9ConditionE11__get_valueB7v160006Ev, symObjAddr: 0x1FF4, symBinAddr: 0x1000046C4, symSize: 0x14 }
  - { offsetInCU: 0x1B188, offset: 0x1B188, size: 0x8, addend: 0x0, symName: __ZNSt3__19allocatorINS_11__tree_nodeINS_12__value_typeIm9ConditionEEPvEEE10deallocateB7v160006EPS6_m, symObjAddr: 0x2008, symBinAddr: 0x1000046D8, symSize: 0x74 }
  - { offsetInCU: 0x1B1CA, offset: 0x1B1CA, size: 0x8, addend: 0x0, symName: __ZNKSt3__16__treeINS_12__value_typeIm9ConditionEENS_19__map_value_compareImS3_NS_4lessImEELb1EEENS_9allocatorIS3_EEE10__end_nodeB7v160006Ev, symObjAddr: 0x2104, symBinAddr: 0x1000047D4, symSize: 0x2C }
  - { offsetInCU: 0x1B1F0, offset: 0x1B1F0, size: 0x8, addend: 0x0, symName: __ZNKSt3__117__compressed_pairINS_15__tree_end_nodeIPNS_16__tree_node_baseIPvEEEENS_9allocatorINS_11__tree_nodeINS_12__value_typeIm9ConditionEES3_EEEEE5firstB7v160006Ev, symObjAddr: 0x2130, symBinAddr: 0x100004800, symSize: 0x24 }
  - { offsetInCU: 0x1B216, offset: 0x1B216, size: 0x8, addend: 0x0, symName: __ZNKSt3__122__compressed_pair_elemINS_15__tree_end_nodeIPNS_16__tree_node_baseIPvEEEELi0ELb0EE5__getB7v160006Ev, symObjAddr: 0x2154, symBinAddr: 0x100004824, symSize: 0x14 }
  - { offsetInCU: 0x1B23C, offset: 0x1B23C, size: 0x8, addend: 0x0, symName: __ZNSt3__13mapINS_12basic_stringIcNS_11char_traitsIcEENS_9allocatorIcEEEElNS_4lessIS6_EENS4_INS_4pairIKS6_lEEEEED2B7v160006Ev, symObjAddr: 0x2168, symBinAddr: 0x100004838, symSize: 0x2C }
  - { offsetInCU: 0x1B266, offset: 0x1B266, size: 0x8, addend: 0x0, symName: __ZNSt3__16__treeINS_12__value_typeINS_12basic_stringIcNS_11char_traitsIcEENS_9allocatorIcEEEElEENS_19__map_value_compareIS7_S8_NS_4lessIS7_EELb1EEENS5_IS8_EEED1Ev, symObjAddr: 0x2194, symBinAddr: 0x100004864, symSize: 0x2C }
  - { offsetInCU: 0x1B292, offset: 0x1B292, size: 0x8, addend: 0x0, symName: __ZNSt3__16__treeINS_12__value_typeINS_12basic_stringIcNS_11char_traitsIcEENS_9allocatorIcEEEElEENS_19__map_value_compareIS7_S8_NS_4lessIS7_EELb1EEENS5_IS8_EEED2Ev, symObjAddr: 0x21C0, symBinAddr: 0x100004890, symSize: 0x38 }
  - { offsetInCU: 0x1B2BE, offset: 0x1B2BE, size: 0x8, addend: 0x0, symName: __ZNSt3__16__treeINS_12__value_typeINS_12basic_stringIcNS_11char_traitsIcEENS_9allocatorIcEEEElEENS_19__map_value_compareIS7_S8_NS_4lessIS7_EELb1EEENS5_IS8_EEE7destroyEPNS_11__tree_nodeIS8_PvEE, symObjAddr: 0x21F8, symBinAddr: 0x1000048C8, symSize: 0xC0 }
  - { offsetInCU: 0x1B312, offset: 0x1B312, size: 0x8, addend: 0x0, symName: __ZNKSt3__16__treeINS_12__value_typeINS_12basic_stringIcNS_11char_traitsIcEENS_9allocatorIcEEEElEENS_19__map_value_compareIS7_S8_NS_4lessIS7_EELb1EEENS5_IS8_EEE6__rootB7v160006Ev, symObjAddr: 0x22B8, symBinAddr: 0x100004988, symSize: 0x28 }
  - { offsetInCU: 0x1B338, offset: 0x1B338, size: 0x8, addend: 0x0, symName: __ZNSt3__16__treeINS_12__value_typeINS_12basic_stringIcNS_11char_traitsIcEENS_9allocatorIcEEEElEENS_19__map_value_compareIS7_S8_NS_4lessIS7_EELb1EEENS5_IS8_EEE12__node_allocB7v160006Ev, symObjAddr: 0x22E0, symBinAddr: 0x1000049B0, symSize: 0x28 }
  - { offsetInCU: 0x1B35E, offset: 0x1B35E, size: 0x8, addend: 0x0, symName: __ZNSt3__116allocator_traitsINS_9allocatorINS_11__tree_nodeINS_12__value_typeINS_12basic_stringIcNS_11char_traitsIcEENS1_IcEEEElEEPvEEEEE7destroyB7v160006INS_4pairIKS8_lEEvvEEvRSC_PT_, symObjAddr: 0x2308, symBinAddr: 0x1000049D8, symSize: 0x28 }
  - { offsetInCU: 0x1B399, offset: 0x1B399, size: 0x8, addend: 0x0, symName: __ZNSt3__122__tree_key_value_typesINS_12__value_typeINS_12basic_stringIcNS_11char_traitsIcEENS_9allocatorIcEEEElEEE9__get_ptrB7v160006ERS8_, symObjAddr: 0x2330, symBinAddr: 0x100004A00, symSize: 0x24 }
  - { offsetInCU: 0x1B3BD, offset: 0x1B3BD, size: 0x8, addend: 0x0, symName: __ZNSt3__116allocator_traitsINS_9allocatorINS_11__tree_nodeINS_12__value_typeINS_12basic_stringIcNS_11char_traitsIcEENS1_IcEEEElEEPvEEEEE10deallocateB7v160006ERSC_PSB_m, symObjAddr: 0x2354, symBinAddr: 0x100004A24, symSize: 0x34 }
  - { offsetInCU: 0x1B3FF, offset: 0x1B3FF, size: 0x8, addend: 0x0, symName: __ZNSt3__117__compressed_pairINS_15__tree_end_nodeIPNS_16__tree_node_baseIPvEEEENS_9allocatorINS_11__tree_nodeINS_12__value_typeINS_12basic_stringIcNS_11char_traitsIcEENS7_IcEEEElEES3_EEEEE6secondB7v160006Ev, symObjAddr: 0x2388, symBinAddr: 0x100004A58, symSize: 0x24 }
  - { offsetInCU: 0x1B425, offset: 0x1B425, size: 0x8, addend: 0x0, symName: __ZNSt3__122__compressed_pair_elemINS_9allocatorINS_11__tree_nodeINS_12__value_typeINS_12basic_stringIcNS_11char_traitsIcEENS1_IcEEEElEEPvEEEELi1ELb1EE5__getB7v160006Ev, symObjAddr: 0x23AC, symBinAddr: 0x100004A7C, symSize: 0x14 }
  - { offsetInCU: 0x1B44B, offset: 0x1B44B, size: 0x8, addend: 0x0, symName: __ZNSt3__14pairIKNS_12basic_stringIcNS_11char_traitsIcEENS_9allocatorIcEEEElED1Ev, symObjAddr: 0x23C0, symBinAddr: 0x100004A90, symSize: 0x2C }
  - { offsetInCU: 0x1B477, offset: 0x1B477, size: 0x8, addend: 0x0, symName: __ZNSt3__14pairIKNS_12basic_stringIcNS_11char_traitsIcEENS_9allocatorIcEEEElED2Ev, symObjAddr: 0x23EC, symBinAddr: 0x100004ABC, symSize: 0x2C }
  - { offsetInCU: 0x1B4A3, offset: 0x1B4A3, size: 0x8, addend: 0x0, symName: __ZNSt3__112__value_typeINS_12basic_stringIcNS_11char_traitsIcEENS_9allocatorIcEEEElE11__get_valueB7v160006Ev, symObjAddr: 0x2418, symBinAddr: 0x100004AE8, symSize: 0x14 }
  - { offsetInCU: 0x1B4C9, offset: 0x1B4C9, size: 0x8, addend: 0x0, symName: __ZNSt3__19allocatorINS_11__tree_nodeINS_12__value_typeINS_12basic_stringIcNS_11char_traitsIcEENS0_IcEEEElEEPvEEE10deallocateB7v160006EPSA_m, symObjAddr: 0x242C, symBinAddr: 0x100004AFC, symSize: 0x70 }
  - { offsetInCU: 0x1B50B, offset: 0x1B50B, size: 0x8, addend: 0x0, symName: __ZNKSt3__16__treeINS_12__value_typeINS_12basic_stringIcNS_11char_traitsIcEENS_9allocatorIcEEEElEENS_19__map_value_compareIS7_S8_NS_4lessIS7_EELb1EEENS5_IS8_EEE10__end_nodeB7v160006Ev, symObjAddr: 0x249C, symBinAddr: 0x100004B6C, symSize: 0x2C }
  - { offsetInCU: 0x1B531, offset: 0x1B531, size: 0x8, addend: 0x0, symName: __ZNKSt3__117__compressed_pairINS_15__tree_end_nodeIPNS_16__tree_node_baseIPvEEEENS_9allocatorINS_11__tree_nodeINS_12__value_typeINS_12basic_stringIcNS_11char_traitsIcEENS7_IcEEEElEES3_EEEEE5firstB7v160006Ev, symObjAddr: 0x24C8, symBinAddr: 0x100004B98, symSize: 0x24 }
  - { offsetInCU: 0x1B557, offset: 0x1B557, size: 0x8, addend: 0x0, symName: __ZNSt3__16vectorINS_4pairImNS_12basic_stringIcNS_11char_traitsIcEENS_9allocatorIcEEEEEENS5_IS8_EEED2B7v160006Ev, symObjAddr: 0x24EC, symBinAddr: 0x100004BBC, symSize: 0x3C }
  - { offsetInCU: 0x1B581, offset: 0x1B581, size: 0x8, addend: 0x0, symName: __ZNSt3__16vectorINS_4pairImNS_12basic_stringIcNS_11char_traitsIcEENS_9allocatorIcEEEEEENS5_IS8_EEE16__destroy_vectorC1ERSA_, symObjAddr: 0x2528, symBinAddr: 0x100004BF8, symSize: 0x34 }
  - { offsetInCU: 0x1B5BA, offset: 0x1B5BA, size: 0x8, addend: 0x0, symName: __ZNSt3__16vectorINS_4pairImNS_12basic_stringIcNS_11char_traitsIcEENS_9allocatorIcEEEEEENS5_IS8_EEE16__destroy_vectorclB7v160006Ev, symObjAddr: 0x255C, symBinAddr: 0x100004C2C, symSize: 0x9C }
  - { offsetInCU: 0x1B5E0, offset: 0x1B5E0, size: 0x8, addend: 0x0, symName: __ZNSt3__16vectorINS_4pairImNS_12basic_stringIcNS_11char_traitsIcEENS_9allocatorIcEEEEEENS5_IS8_EEE16__destroy_vectorC2ERSA_, symObjAddr: 0x25F8, symBinAddr: 0x100004CC8, symSize: 0x20 }
  - { offsetInCU: 0x1B619, offset: 0x1B619, size: 0x8, addend: 0x0, symName: __ZNKSt3__16vectorINS_4pairImNS_12basic_stringIcNS_11char_traitsIcEENS_9allocatorIcEEEEEENS5_IS8_EEE17__annotate_deleteB7v160006Ev, symObjAddr: 0x2618, symBinAddr: 0x100004CE8, symSize: 0xB8 }
  - { offsetInCU: 0x1B63F, offset: 0x1B63F, size: 0x8, addend: 0x0, symName: __ZNSt3__16vectorINS_4pairImNS_12basic_stringIcNS_11char_traitsIcEENS_9allocatorIcEEEEEENS5_IS8_EEE7__clearB7v160006Ev, symObjAddr: 0x26E0, symBinAddr: 0x100004DB0, symSize: 0x28 }
  - { offsetInCU: 0x1B665, offset: 0x1B665, size: 0x8, addend: 0x0, symName: __ZNSt3__116allocator_traitsINS_9allocatorINS_4pairImNS_12basic_stringIcNS_11char_traitsIcEENS1_IcEEEEEEEEE10deallocateB7v160006ERS9_PS8_m, symObjAddr: 0x2708, symBinAddr: 0x100004DD8, symSize: 0x34 }
  - { offsetInCU: 0x1B6A7, offset: 0x1B6A7, size: 0x8, addend: 0x0, symName: __ZNSt3__16vectorINS_4pairImNS_12basic_stringIcNS_11char_traitsIcEENS_9allocatorIcEEEEEENS5_IS8_EEE7__allocB7v160006Ev, symObjAddr: 0x273C, symBinAddr: 0x100004E0C, symSize: 0x28 }
  - { offsetInCU: 0x1B6CD, offset: 0x1B6CD, size: 0x8, addend: 0x0, symName: __ZNKSt3__16vectorINS_4pairImNS_12basic_stringIcNS_11char_traitsIcEENS_9allocatorIcEEEEEENS5_IS8_EEE8capacityB7v160006Ev, symObjAddr: 0x2764, symBinAddr: 0x100004E34, symSize: 0x40 }
  - { offsetInCU: 0x1B6F3, offset: 0x1B6F3, size: 0x8, addend: 0x0, symName: __ZNKSt3__16vectorINS_4pairImNS_12basic_stringIcNS_11char_traitsIcEENS_9allocatorIcEEEEEENS5_IS8_EEE31__annotate_contiguous_containerB7v160006EPKvSC_SC_SC_, symObjAddr: 0x27A4, symBinAddr: 0x100004E74, symSize: 0x20 }
  - { offsetInCU: 0x1B749, offset: 0x1B749, size: 0x8, addend: 0x0, symName: __ZNKSt3__16vectorINS_4pairImNS_12basic_stringIcNS_11char_traitsIcEENS_9allocatorIcEEEEEENS5_IS8_EEE4dataB7v160006Ev, symObjAddr: 0x27C4, symBinAddr: 0x100004E94, symSize: 0x28 }
  - { offsetInCU: 0x1B76F, offset: 0x1B76F, size: 0x8, addend: 0x0, symName: __ZNKSt3__16vectorINS_4pairImNS_12basic_stringIcNS_11char_traitsIcEENS_9allocatorIcEEEEEENS5_IS8_EEE4sizeB7v160006Ev, symObjAddr: 0x27EC, symBinAddr: 0x100004EBC, symSize: 0x28 }
  - { offsetInCU: 0x1B795, offset: 0x1B795, size: 0x8, addend: 0x0, symName: __ZNSt3__16vectorINS_4pairImNS_12basic_stringIcNS_11char_traitsIcEENS_9allocatorIcEEEEEENS5_IS8_EEE22__base_destruct_at_endB7v160006EPS8_, symObjAddr: 0x2828, symBinAddr: 0x100004EF8, symSize: 0xA0 }
  - { offsetInCU: 0x1B7D9, offset: 0x1B7D9, size: 0x8, addend: 0x0, symName: __ZNSt3__116allocator_traitsINS_9allocatorINS_4pairImNS_12basic_stringIcNS_11char_traitsIcEENS1_IcEEEEEEEEE7destroyB7v160006IS8_vEEvRS9_PT_, symObjAddr: 0x28C8, symBinAddr: 0x100004F98, symSize: 0x2C }
  - { offsetInCU: 0x1B816, offset: 0x1B816, size: 0x8, addend: 0x0, symName: __ZNSt3__19allocatorINS_4pairImNS_12basic_stringIcNS_11char_traitsIcEENS0_IcEEEEEEE7destroyB7v160006EPS7_, symObjAddr: 0x28F4, symBinAddr: 0x100004FC4, symSize: 0x28 }
  - { offsetInCU: 0x1B84A, offset: 0x1B84A, size: 0x8, addend: 0x0, symName: __ZNSt3__14pairImNS_12basic_stringIcNS_11char_traitsIcEENS_9allocatorIcEEEEED1Ev, symObjAddr: 0x291C, symBinAddr: 0x100004FEC, symSize: 0x2C }
  - { offsetInCU: 0x1B876, offset: 0x1B876, size: 0x8, addend: 0x0, symName: __ZNSt3__14pairImNS_12basic_stringIcNS_11char_traitsIcEENS_9allocatorIcEEEEED2Ev, symObjAddr: 0x2948, symBinAddr: 0x100005018, symSize: 0x30 }
  - { offsetInCU: 0x1B8A2, offset: 0x1B8A2, size: 0x8, addend: 0x0, symName: __ZNSt3__19allocatorINS_4pairImNS_12basic_stringIcNS_11char_traitsIcEENS0_IcEEEEEEE10deallocateB7v160006EPS7_m, symObjAddr: 0x2978, symBinAddr: 0x100005048, symSize: 0x70 }
  - { offsetInCU: 0x1B8E4, offset: 0x1B8E4, size: 0x8, addend: 0x0, symName: __ZNSt3__117__compressed_pairIPNS_4pairImNS_12basic_stringIcNS_11char_traitsIcEENS_9allocatorIcEEEEEENS5_IS8_EEE6secondB7v160006Ev, symObjAddr: 0x29E8, symBinAddr: 0x1000050B8, symSize: 0x24 }
  - { offsetInCU: 0x1B90A, offset: 0x1B90A, size: 0x8, addend: 0x0, symName: __ZNSt3__122__compressed_pair_elemINS_9allocatorINS_4pairImNS_12basic_stringIcNS_11char_traitsIcEENS1_IcEEEEEEEELi1ELb1EE5__getB7v160006Ev, symObjAddr: 0x2A0C, symBinAddr: 0x1000050DC, symSize: 0x14 }
  - { offsetInCU: 0x1B930, offset: 0x1B930, size: 0x8, addend: 0x0, symName: __ZNKSt3__16vectorINS_4pairImNS_12basic_stringIcNS_11char_traitsIcEENS_9allocatorIcEEEEEENS5_IS8_EEE9__end_capB7v160006Ev, symObjAddr: 0x2A20, symBinAddr: 0x1000050F0, symSize: 0x28 }
  - { offsetInCU: 0x1B956, offset: 0x1B956, size: 0x8, addend: 0x0, symName: __ZNKSt3__117__compressed_pairIPNS_4pairImNS_12basic_stringIcNS_11char_traitsIcEENS_9allocatorIcEEEEEENS5_IS8_EEE5firstB7v160006Ev, symObjAddr: 0x2A48, symBinAddr: 0x100005118, symSize: 0x24 }
  - { offsetInCU: 0x1B97C, offset: 0x1B97C, size: 0x8, addend: 0x0, symName: __ZNKSt3__122__compressed_pair_elemIPNS_4pairImNS_12basic_stringIcNS_11char_traitsIcEENS_9allocatorIcEEEEEELi0ELb0EE5__getB7v160006Ev, symObjAddr: 0x2A6C, symBinAddr: 0x10000513C, symSize: 0x14 }
  - { offsetInCU: 0x1B9A2, offset: 0x1B9A2, size: 0x8, addend: 0x0, symName: __ZNSt3__112__value_typeIm4PageE11__get_valueB7v160006Ev, symObjAddr: 0x2A80, symBinAddr: 0x100005150, symSize: 0x14 }
  - { offsetInCU: 0x1B9C8, offset: 0x1B9C8, size: 0x8, addend: 0x0, symName: __ZNSt3__19allocatorINS_11__tree_nodeINS_12__value_typeIm4PageEEPvEEE10deallocateB7v160006EPS6_m, symObjAddr: 0x2A94, symBinAddr: 0x100005164, symSize: 0x74 }
  - { offsetInCU: 0x1BA0A, offset: 0x1BA0A, size: 0x8, addend: 0x0, symName: __ZNKSt3__16__treeINS_12__value_typeIm4PageEENS_19__map_value_compareImS3_NS_4lessImEELb1EEENS_9allocatorIS3_EEE10__end_nodeB7v160006Ev, symObjAddr: 0x2B08, symBinAddr: 0x1000051D8, symSize: 0x2C }
  - { offsetInCU: 0x1BA30, offset: 0x1BA30, size: 0x8, addend: 0x0, symName: __ZNKSt3__117__compressed_pairINS_15__tree_end_nodeIPNS_16__tree_node_baseIPvEEEENS_9allocatorINS_11__tree_nodeINS_12__value_typeIm4PageEES3_EEEEE5firstB7v160006Ev, symObjAddr: 0x2B34, symBinAddr: 0x100005204, symSize: 0x24 }
  - { offsetInCU: 0x1BA56, offset: 0x1BA56, size: 0x8, addend: 0x0, symName: __ZNKSt3__112basic_stringIcNS_11char_traitsIcEENS_9allocatorIcEEE5c_strB7v160006Ev, symObjAddr: 0x2C74, symBinAddr: 0x100005344, symSize: 0x24 }
  - { offsetInCU: 0x1BB0F, offset: 0x1BB0F, size: 0x8, addend: 0x0, symName: __ZNSt3__114basic_ifstreamIcNS_11char_traitsIcEEEC1EPKcj, symObjAddr: 0x2C98, symBinAddr: 0x100005368, symSize: 0x17C }
  - { offsetInCU: 0x1BB59, offset: 0x1BB59, size: 0x8, addend: 0x0, symName: __ZNKSt3__114basic_ifstreamIcNS_11char_traitsIcEEE7is_openEv, symObjAddr: 0x2E14, symBinAddr: 0x1000054E4, symSize: 0x2C }
  - { offsetInCU: 0x1BB81, offset: 0x1BB81, size: 0x8, addend: 0x0, symName: __ZNSt3__112basic_stringIcNS_11char_traitsIcEENS_9allocatorIcEEEC1B7v160006Ev, symObjAddr: 0x2E8C, symBinAddr: 0x10000555C, symSize: 0x2C }
  - { offsetInCU: 0x1BBAB, offset: 0x1BBAB, size: 0x8, addend: 0x0, symName: __ZNKSt3__19basic_iosIcNS_11char_traitsIcEEEcvPvB7v160006Ev, symObjAddr: 0x2F14, symBinAddr: 0x1000055E4, symSize: 0x4C }
  - { offsetInCU: 0x1BBD1, offset: 0x1BBD1, size: 0x8, addend: 0x0, symName: __ZNKSt3__112basic_stringIcNS_11char_traitsIcEENS_9allocatorIcEEE17find_first_not_ofB7v160006EPKcm, symObjAddr: 0x2F60, symBinAddr: 0x100005630, symSize: 0x74 }
  - { offsetInCU: 0x1BC17, offset: 0x1BC17, size: 0x8, addend: 0x0, symName: __ZNKSt3__112basic_stringIcNS_11char_traitsIcEENS_9allocatorIcEEE6substrB7v160006Emm, symObjAddr: 0x2FD4, symBinAddr: 0x1000056A4, symSize: 0x68 }
  - { offsetInCU: 0x1BC5B, offset: 0x1BC5B, size: 0x8, addend: 0x0, symName: __ZNSt3__112basic_stringIcNS_11char_traitsIcEENS_9allocatorIcEEEixB7v160006Em, symObjAddr: 0x303C, symBinAddr: 0x10000570C, symSize: 0x30 }
  - { offsetInCU: 0x1BC90, offset: 0x1BC90, size: 0x8, addend: 0x0, symName: __ZNSt3__119istreambuf_iteratorIcNS_11char_traitsIcEEEC1B7v160006ERNS_13basic_istreamIcS2_EE, symObjAddr: 0x31D4, symBinAddr: 0x1000058A4, symSize: 0x34 }
  - { offsetInCU: 0x1BCC8, offset: 0x1BCC8, size: 0x8, addend: 0x0, symName: __ZNSt3__119istreambuf_iteratorIcNS_11char_traitsIcEEEC1B7v160006Ev, symObjAddr: 0x3208, symBinAddr: 0x1000058D8, symSize: 0x2C }
  - { offsetInCU: 0x1BCF2, offset: 0x1BCF2, size: 0x8, addend: 0x0, symName: __ZNSt3__112basic_stringIcNS_11char_traitsIcEENS_9allocatorIcEEEC1B7v160006INS_19istreambuf_iteratorIcS2_EEvEET_S9_, symObjAddr: 0x3234, symBinAddr: 0x100005904, symSize: 0x3C }
  - { offsetInCU: 0x1BD44, offset: 0x1BD44, size: 0x8, addend: 0x0, symName: __ZN4PageC1Em8pageTypeRKNSt3__112basic_stringIcNS1_11char_traitsIcEENS1_9allocatorIcEEEE, symObjAddr: 0x3270, symBinAddr: 0x100005940, symSize: 0x44 }
  - { offsetInCU: 0x1BD98, offset: 0x1BD98, size: 0x8, addend: 0x0, symName: __ZN5Story7addPageERK4Page, symObjAddr: 0x32B4, symBinAddr: 0x100005984, symSize: 0x54 }
  - { offsetInCU: 0x1BDCC, offset: 0x1BDCC, size: 0x8, addend: 0x0, symName: __ZNSt3__114basic_ifstreamIcNS_11char_traitsIcEEED1Ev, symObjAddr: 0x3308, symBinAddr: 0x1000059D8, symSize: 0x70 }
  - { offsetInCU: 0x1BDF9, offset: 0x1BDF9, size: 0x8, addend: 0x0, symName: __ZN5Story7getPageEm, symObjAddr: 0x3378, symBinAddr: 0x100005A48, symSize: 0x88 }
  - { offsetInCU: 0x1BE3B, offset: 0x1BE3B, size: 0x8, addend: 0x0, symName: __ZNK4Page7getTypeEv, symObjAddr: 0x3400, symBinAddr: 0x100005AD0, symSize: 0x18 }
  - { offsetInCU: 0x1BE61, offset: 0x1BE61, size: 0x8, addend: 0x0, symName: __ZN4Page9addChoiceEmRKNSt3__112basic_stringIcNS0_11char_traitsIcEENS0_9allocatorIcEEEE, symObjAddr: 0x3418, symBinAddr: 0x100005AE8, symSize: 0x84 }
  - { offsetInCU: 0x1BEA3, offset: 0x1BEA3, size: 0x8, addend: 0x0, symName: __ZNKSt3__112basic_stringIcNS_11char_traitsIcEENS_9allocatorIcEEE4sizeB7v160006Ev, symObjAddr: 0x349C, symBinAddr: 0x100005B6C, symSize: 0x54 }
  - { offsetInCU: 0x1BEC9, offset: 0x1BEC9, size: 0x8, addend: 0x0, symName: __ZNSt3__111char_traitsIcE6lengthEPKc, symObjAddr: 0x34F0, symBinAddr: 0x100005BC0, symSize: 0x48 }
  - { offsetInCU: 0x1BEF6, offset: 0x1BEF6, size: 0x8, addend: 0x0, symName: __ZNSt3__116allocator_traitsINS_9allocatorIcEEE37select_on_container_copy_constructionB7v160006IS2_vvEES2_RKS2_, symObjAddr: 0x3538, symBinAddr: 0x100005C08, symSize: 0x10 }
  - { offsetInCU: 0x1BF25, offset: 0x1BF25, size: 0x8, addend: 0x0, symName: __ZNKSt3__112basic_stringIcNS_11char_traitsIcEENS_9allocatorIcEEE13get_allocatorB7v160006Ev, symObjAddr: 0x3548, symBinAddr: 0x100005C18, symSize: 0x24 }
  - { offsetInCU: 0x1BF4B, offset: 0x1BF4B, size: 0x8, addend: 0x0, symName: __ZNSt3__112basic_stringIcNS_11char_traitsIcEENS_9allocatorIcEEEC1B7v160006ENS_24__uninitialized_size_tagEmRKS4_, symObjAddr: 0x356C, symBinAddr: 0x100005C3C, symSize: 0x3C }
  - { offsetInCU: 0x1BF9F, offset: 0x1BF9F, size: 0x8, addend: 0x0, symName: __ZNSt3__112basic_stringIcNS_11char_traitsIcEENS_9allocatorIcEEE13__get_pointerB7v160006Ev, symObjAddr: 0x35BC, symBinAddr: 0x100005C8C, symSize: 0x54 }
  - { offsetInCU: 0x1BFC5, offset: 0x1BFC5, size: 0x8, addend: 0x0, symName: __ZNSt3__111char_traitsIcE4copyEPcPKcm, symObjAddr: 0x3610, symBinAddr: 0x100005CE0, symSize: 0x80 }
  - { offsetInCU: 0x1C004, offset: 0x1C004, size: 0x8, addend: 0x0, symName: __ZNKSt3__112basic_stringIcNS_11char_traitsIcEENS_9allocatorIcEEE4dataB7v160006Ev, symObjAddr: 0x3690, symBinAddr: 0x100005D60, symSize: 0x28 }
  - { offsetInCU: 0x1C02A, offset: 0x1C02A, size: 0x8, addend: 0x0, symName: __ZNSt3__111char_traitsIcE6assignEPcmc, symObjAddr: 0x36B8, symBinAddr: 0x100005D88, symSize: 0x58 }
  - { offsetInCU: 0x1C069, offset: 0x1C069, size: 0x8, addend: 0x0, symName: __ZNKSt3__112basic_stringIcNS_11char_traitsIcEENS_9allocatorIcEEE9__is_longB7v160006Ev, symObjAddr: 0x3710, symBinAddr: 0x100005DE0, symSize: 0x74 }
  - { offsetInCU: 0x1C08F, offset: 0x1C08F, size: 0x8, addend: 0x0, symName: __ZNKSt3__112basic_stringIcNS_11char_traitsIcEENS_9allocatorIcEEE15__get_long_sizeB7v160006Ev, symObjAddr: 0x3784, symBinAddr: 0x100005E54, symSize: 0x28 }
  - { offsetInCU: 0x1C0B5, offset: 0x1C0B5, size: 0x8, addend: 0x0, symName: __ZNKSt3__112basic_stringIcNS_11char_traitsIcEENS_9allocatorIcEEE16__get_short_sizeB7v160006Ev, symObjAddr: 0x37AC, symBinAddr: 0x100005E7C, symSize: 0x34 }
  - { offsetInCU: 0x1C0DB, offset: 0x1C0DB, size: 0x8, addend: 0x0, symName: __ZNKSt3__117__compressed_pairINS_12basic_stringIcNS_11char_traitsIcEENS_9allocatorIcEEE5__repES5_E5firstB7v160006Ev, symObjAddr: 0x37E0, symBinAddr: 0x100005EB0, symSize: 0x24 }
  - { offsetInCU: 0x1C101, offset: 0x1C101, size: 0x8, addend: 0x0, symName: __ZNKSt3__122__compressed_pair_elemINS_12basic_stringIcNS_11char_traitsIcEENS_9allocatorIcEEE5__repELi0ELb0EE5__getB7v160006Ev, symObjAddr: 0x3804, symBinAddr: 0x100005ED4, symSize: 0x14 }
  - { offsetInCU: 0x1C127, offset: 0x1C127, size: 0x8, addend: 0x0, symName: __ZNKSt3__112basic_stringIcNS_11char_traitsIcEENS_9allocatorIcEEE7__allocB7v160006Ev, symObjAddr: 0x383C, symBinAddr: 0x100005F0C, symSize: 0x24 }
  - { offsetInCU: 0x1C14D, offset: 0x1C14D, size: 0x8, addend: 0x0, symName: __ZNKSt3__117__compressed_pairINS_12basic_stringIcNS_11char_traitsIcEENS_9allocatorIcEEE5__repES5_E6secondB7v160006Ev, symObjAddr: 0x3860, symBinAddr: 0x100005F30, symSize: 0x24 }
  - { offsetInCU: 0x1C173, offset: 0x1C173, size: 0x8, addend: 0x0, symName: __ZNKSt3__122__compressed_pair_elemINS_9allocatorIcEELi1ELb1EE5__getB7v160006Ev, symObjAddr: 0x3884, symBinAddr: 0x100005F54, symSize: 0x14 }
  - { offsetInCU: 0x1C199, offset: 0x1C199, size: 0x8, addend: 0x0, symName: __ZNSt3__112basic_stringIcNS_11char_traitsIcEENS_9allocatorIcEEEC2B7v160006ENS_24__uninitialized_size_tagEmRKS4_, symObjAddr: 0x3898, symBinAddr: 0x100005F68, symSize: 0x118 }
  - { offsetInCU: 0x1C21E, offset: 0x1C21E, size: 0x8, addend: 0x0, symName: __ZNSt3__117__compressed_pairINS_12basic_stringIcNS_11char_traitsIcEENS_9allocatorIcEEE5__repES5_EC1B7v160006INS_18__default_init_tagERKS5_EEOT_OT0_, symObjAddr: 0x39B0, symBinAddr: 0x100006080, symSize: 0x3C }
  - { offsetInCU: 0x1C276, offset: 0x1C276, size: 0x8, addend: 0x0, symName: __ZNKSt3__112basic_stringIcNS_11char_traitsIcEENS_9allocatorIcEEE8max_sizeB7v160006Ev, symObjAddr: 0x39EC, symBinAddr: 0x1000060BC, symSize: 0xAC }
  - { offsetInCU: 0x1C2C8, offset: 0x1C2C8, size: 0x8, addend: 0x0, symName: __ZNKSt3__112basic_stringIcNS_11char_traitsIcEENS_9allocatorIcEEE20__throw_length_errorB7v160006Ev, symObjAddr: 0x3A98, symBinAddr: 0x100006168, symSize: 0x1C }
  - { offsetInCU: 0x1C2EE, offset: 0x1C2EE, size: 0x8, addend: 0x0, symName: __ZNSt3__112basic_stringIcNS_11char_traitsIcEENS_9allocatorIcEEE13__fits_in_ssoB7v160006Em, symObjAddr: 0x3AB4, symBinAddr: 0x100006184, symSize: 0x4C }
  - { offsetInCU: 0x1C312, offset: 0x1C312, size: 0x8, addend: 0x0, symName: __ZNSt3__117__compressed_pairINS_12basic_stringIcNS_11char_traitsIcEENS_9allocatorIcEEE5__repES5_E5firstB7v160006Ev, symObjAddr: 0x3B00, symBinAddr: 0x1000061D0, symSize: 0x24 }
  - { offsetInCU: 0x1C338, offset: 0x1C338, size: 0x8, addend: 0x0, symName: __ZNSt3__112basic_stringIcNS_11char_traitsIcEENS_9allocatorIcEEE16__set_short_sizeB7v160006Em, symObjAddr: 0x3B24, symBinAddr: 0x1000061F4, symSize: 0x78 }
  - { offsetInCU: 0x1C36D, offset: 0x1C36D, size: 0x8, addend: 0x0, symName: __ZNSt3__112basic_stringIcNS_11char_traitsIcEENS_9allocatorIcEEE11__recommendB7v160006Em, symObjAddr: 0x3B9C, symBinAddr: 0x10000626C, symSize: 0x9C }
  - { offsetInCU: 0x1C3A0, offset: 0x1C3A0, size: 0x8, addend: 0x0, symName: __ZNSt3__116allocator_traitsINS_9allocatorIcEEE8allocateB7v160006ERS2_m, symObjAddr: 0x3C38, symBinAddr: 0x100006308, symSize: 0x2C }
  - { offsetInCU: 0x1C3D3, offset: 0x1C3D3, size: 0x8, addend: 0x0, symName: __ZNSt3__112basic_stringIcNS_11char_traitsIcEENS_9allocatorIcEEE7__allocB7v160006Ev, symObjAddr: 0x3C64, symBinAddr: 0x100006334, symSize: 0x24 }
  - { offsetInCU: 0x1C3F9, offset: 0x1C3F9, size: 0x8, addend: 0x0, symName: __ZNSt3__112basic_stringIcNS_11char_traitsIcEENS_9allocatorIcEEE16__begin_lifetimeB7v160006EPcm, symObjAddr: 0x3C88, symBinAddr: 0x100006358, symSize: 0x14 }
  - { offsetInCU: 0x1C42C, offset: 0x1C42C, size: 0x8, addend: 0x0, symName: __ZNSt3__112basic_stringIcNS_11char_traitsIcEENS_9allocatorIcEEE14__set_long_capB7v160006Em, symObjAddr: 0x3C9C, symBinAddr: 0x10000636C, symSize: 0x70 }
  - { offsetInCU: 0x1C461, offset: 0x1C461, size: 0x8, addend: 0x0, symName: __ZNSt3__112basic_stringIcNS_11char_traitsIcEENS_9allocatorIcEEE18__set_long_pointerB7v160006EPc, symObjAddr: 0x3D0C, symBinAddr: 0x1000063DC, symSize: 0x38 }
  - { offsetInCU: 0x1C496, offset: 0x1C496, size: 0x8, addend: 0x0, symName: __ZNSt3__112basic_stringIcNS_11char_traitsIcEENS_9allocatorIcEEE15__set_long_sizeB7v160006Em, symObjAddr: 0x3D44, symBinAddr: 0x100006414, symSize: 0x38 }
  - { offsetInCU: 0x1C4CB, offset: 0x1C4CB, size: 0x8, addend: 0x0, symName: __ZNSt3__117__compressed_pairINS_12basic_stringIcNS_11char_traitsIcEENS_9allocatorIcEEE5__repES5_EC2B7v160006INS_18__default_init_tagERKS5_EEOT_OT0_, symObjAddr: 0x3D8C, symBinAddr: 0x10000645C, symSize: 0x40 }
  - { offsetInCU: 0x1C523, offset: 0x1C523, size: 0x8, addend: 0x0, symName: __ZNSt3__122__compressed_pair_elemINS_12basic_stringIcNS_11char_traitsIcEENS_9allocatorIcEEE5__repELi0ELb0EEC2B7v160006ENS_18__default_init_tagE, symObjAddr: 0x3DCC, symBinAddr: 0x10000649C, symSize: 0x14 }
  - { offsetInCU: 0x1C557, offset: 0x1C557, size: 0x8, addend: 0x0, symName: __ZNSt3__122__compressed_pair_elemINS_9allocatorIcEELi1ELb1EEC2B7v160006IRKS2_vEEOT_, symObjAddr: 0x3DE0, symBinAddr: 0x1000064B0, symSize: 0x18 }
  - { offsetInCU: 0x1C599, offset: 0x1C599, size: 0x8, addend: 0x0, symName: __ZNSt3__116allocator_traitsINS_9allocatorIcEEE8max_sizeB7v160006IS2_vEEmRKS2_, symObjAddr: 0x3DF8, symBinAddr: 0x1000064C8, symSize: 0x24 }
  - { offsetInCU: 0x1C5C7, offset: 0x1C5C7, size: 0x8, addend: 0x0, symName: __ZNSt3__114numeric_limitsImE3maxB7v160006Ev, symObjAddr: 0x3E1C, symBinAddr: 0x1000064EC, symSize: 0x14 }
  - { offsetInCU: 0x1C5DB, offset: 0x1C5DB, size: 0x8, addend: 0x0, symName: __ZNKSt3__19allocatorIcE8max_sizeB7v160006Ev, symObjAddr: 0x3E30, symBinAddr: 0x100006500, symSize: 0x14 }
  - { offsetInCU: 0x1C601, offset: 0x1C601, size: 0x8, addend: 0x0, symName: __ZNSt3__123__libcpp_numeric_limitsImLb1EE3maxB7v160006Ev, symObjAddr: 0x3E44, symBinAddr: 0x100006514, symSize: 0x8 }
  - { offsetInCU: 0x1C615, offset: 0x1C615, size: 0x8, addend: 0x0, symName: __ZNSt12length_errorC1B7v160006EPKc, symObjAddr: 0x3EB0, symBinAddr: 0x100006580, symSize: 0x34 }
  - { offsetInCU: 0x1C64D, offset: 0x1C64D, size: 0x8, addend: 0x0, symName: __ZNSt12length_errorC2B7v160006EPKc, symObjAddr: 0x3EE4, symBinAddr: 0x1000065B4, symSize: 0x4C }
  - { offsetInCU: 0x1C685, offset: 0x1C685, size: 0x8, addend: 0x0, symName: __ZNSt3__122__compressed_pair_elemINS_12basic_stringIcNS_11char_traitsIcEENS_9allocatorIcEEE5__repELi0ELb0EE5__getB7v160006Ev, symObjAddr: 0x3F30, symBinAddr: 0x100006600, symSize: 0x14 }
  - { offsetInCU: 0x1C6AB, offset: 0x1C6AB, size: 0x8, addend: 0x0, symName: __ZNSt3__112basic_stringIcNS_11char_traitsIcEENS_9allocatorIcEEE10__align_itB7v160006ILm16EEEmm, symObjAddr: 0x3F44, symBinAddr: 0x100006614, symSize: 0x1C }
  - { offsetInCU: 0x1C6D9, offset: 0x1C6D9, size: 0x8, addend: 0x0, symName: __ZNSt3__19allocatorIcE8allocateB7v160006Em, symObjAddr: 0x3F60, symBinAddr: 0x100006630, symSize: 0x84 }
  - { offsetInCU: 0x1C70D, offset: 0x1C70D, size: 0x8, addend: 0x0, symName: __ZNSt3__117__compressed_pairINS_12basic_stringIcNS_11char_traitsIcEENS_9allocatorIcEEE5__repES5_E6secondB7v160006Ev, symObjAddr: 0x4064, symBinAddr: 0x100006734, symSize: 0x24 }
  - { offsetInCU: 0x1C733, offset: 0x1C733, size: 0x8, addend: 0x0, symName: __ZNSt3__122__compressed_pair_elemINS_9allocatorIcEELi1ELb1EE5__getB7v160006Ev, symObjAddr: 0x4088, symBinAddr: 0x100006758, symSize: 0x14 }
  - { offsetInCU: 0x1C759, offset: 0x1C759, size: 0x8, addend: 0x0, symName: __ZNSt3__112basic_stringIcNS_11char_traitsIcEENS_9allocatorIcEEE18__get_long_pointerB7v160006Ev, symObjAddr: 0x409C, symBinAddr: 0x10000676C, symSize: 0x28 }
  - { offsetInCU: 0x1C77F, offset: 0x1C77F, size: 0x8, addend: 0x0, symName: __ZNSt3__112basic_stringIcNS_11char_traitsIcEENS_9allocatorIcEEE19__get_short_pointerB7v160006Ev, symObjAddr: 0x40C4, symBinAddr: 0x100006794, symSize: 0x28 }
  - { offsetInCU: 0x1C7A5, offset: 0x1C7A5, size: 0x8, addend: 0x0, symName: __ZNSt3__114pointer_traitsIPcE10pointer_toB7v160006ERc, symObjAddr: 0x40EC, symBinAddr: 0x1000067BC, symSize: 0x14 }
  - { offsetInCU: 0x1C7FF, offset: 0x1C7FF, size: 0x8, addend: 0x0, symName: __ZNKSt3__114__copy_trivialclB7v160006IKccLi0EEENS_4pairIPT_PT0_EES5_S5_S7_, symObjAddr: 0x4330, symBinAddr: 0x100006A00, symSize: 0x48 }
  - { offsetInCU: 0x1C880, offset: 0x1C880, size: 0x8, addend: 0x0, symName: __ZNSt3__14pairIPKcS2_EC1B7v160006ERKS2_S5_, symObjAddr: 0x44AC, symBinAddr: 0x100006B7C, symSize: 0x3C }
  - { offsetInCU: 0x1C8C6, offset: 0x1C8C6, size: 0x8, addend: 0x0, symName: __ZNSt3__14pairIPKcS2_EC2B7v160006ERKS2_S5_, symObjAddr: 0x44E8, symBinAddr: 0x100006BB8, symSize: 0x34 }
  - { offsetInCU: 0x1C90C, offset: 0x1C90C, size: 0x8, addend: 0x0, symName: __ZNSt3__118__unwrap_iter_implIPKcLb1EE8__unwrapB7v160006ES2_, symObjAddr: 0x451C, symBinAddr: 0x100006BEC, symSize: 0x24 }
  - { offsetInCU: 0x1C92F, offset: 0x1C92F, size: 0x8, addend: 0x0, symName: __ZNSt3__14pairIPKcPcEC1B7v160006ERKS2_RKS3_, symObjAddr: 0x4608, symBinAddr: 0x100006CD8, symSize: 0x3C }
  - { offsetInCU: 0x1C975, offset: 0x1C975, size: 0x8, addend: 0x0, symName: __ZNSt3__14pairIPKcPcEC2B7v160006ERKS2_RKS3_, symObjAddr: 0x4644, symBinAddr: 0x100006D14, symSize: 0x34 }
  - { offsetInCU: 0x1C9BB, offset: 0x1C9BB, size: 0x8, addend: 0x0, symName: __ZNSt3__118__unwrap_iter_implIPcLb1EE8__unwrapB7v160006ES1_, symObjAddr: 0x4678, symBinAddr: 0x100006D48, symSize: 0x24 }
  - { offsetInCU: 0x1C9DE, offset: 0x1C9DE, size: 0x8, addend: 0x0, symName: __ZNSt3__118__unwrap_iter_implIPKcLb1EE8__rewrapB7v160006ES2_S2_, symObjAddr: 0x46EC, symBinAddr: 0x100006DBC, symSize: 0x48 }
  - { offsetInCU: 0x1CA0F, offset: 0x1CA0F, size: 0x8, addend: 0x0, symName: __ZNSt3__118__unwrap_iter_implIPcLb1EE8__rewrapB7v160006ES1_S1_, symObjAddr: 0x4734, symBinAddr: 0x100006E04, symSize: 0x48 }
  - { offsetInCU: 0x1CA40, offset: 0x1CA40, size: 0x8, addend: 0x0, symName: __ZNKSt3__112basic_stringIcNS_11char_traitsIcEENS_9allocatorIcEEE13__get_pointerB7v160006Ev, symObjAddr: 0x477C, symBinAddr: 0x100006E4C, symSize: 0x54 }
  - { offsetInCU: 0x1CA66, offset: 0x1CA66, size: 0x8, addend: 0x0, symName: __ZNKSt3__112basic_stringIcNS_11char_traitsIcEENS_9allocatorIcEEE18__get_long_pointerB7v160006Ev, symObjAddr: 0x47D0, symBinAddr: 0x100006EA0, symSize: 0x28 }
  - { offsetInCU: 0x1CA8C, offset: 0x1CA8C, size: 0x8, addend: 0x0, symName: __ZNKSt3__112basic_stringIcNS_11char_traitsIcEENS_9allocatorIcEEE19__get_short_pointerB7v160006Ev, symObjAddr: 0x47F8, symBinAddr: 0x100006EC8, symSize: 0x28 }
  - { offsetInCU: 0x1CAB2, offset: 0x1CAB2, size: 0x8, addend: 0x0, symName: __ZNSt3__114pointer_traitsIPKcE10pointer_toB7v160006ERS1_, symObjAddr: 0x4820, symBinAddr: 0x100006EF0, symSize: 0x14 }
  - { offsetInCU: 0x1CAD5, offset: 0x1CAD5, size: 0x8, addend: 0x0, symName: __ZNSt3__19basic_iosIcNS_11char_traitsIcEEEC2B7v160006Ev, symObjAddr: 0x48F0, symBinAddr: 0x100006FC0, symSize: 0x44 }
  - { offsetInCU: 0x1CAFF, offset: 0x1CAFF, size: 0x8, addend: 0x0, symName: __ZNSt3__113basic_istreamIcNS_11char_traitsIcEEEC2B7v160006EPNS_15basic_streambufIcS2_EE, symObjAddr: 0x4934, symBinAddr: 0x100007004, symSize: 0x64 }
  - { offsetInCU: 0x1CB44, offset: 0x1CB44, size: 0x8, addend: 0x0, symName: __ZNSt3__19basic_iosIcNS_11char_traitsIcEEE8setstateB7v160006Ej, symObjAddr: 0x4998, symBinAddr: 0x100007068, symSize: 0x2C }
  - { offsetInCU: 0x1CB79, offset: 0x1CB79, size: 0x8, addend: 0x0, symName: __ZNSt3__18ios_baseC2B7v160006Ev, symObjAddr: 0x49C4, symBinAddr: 0x100007094, symSize: 0x24 }
  - { offsetInCU: 0x1CBA3, offset: 0x1CBA3, size: 0x8, addend: 0x0, symName: __ZNSt3__19basic_iosIcNS_11char_traitsIcEEE4initB7v160006EPNS_15basic_streambufIcS2_EE, symObjAddr: 0x49E8, symBinAddr: 0x1000070B8, symSize: 0x44 }
  - { offsetInCU: 0x1CBDA, offset: 0x1CBDA, size: 0x8, addend: 0x0, symName: __ZNSt3__111char_traitsIcE3eofEv, symObjAddr: 0x4A2C, symBinAddr: 0x1000070FC, symSize: 0x8 }
  - { offsetInCU: 0x1CBEE, offset: 0x1CBEE, size: 0x8, addend: 0x0, symName: __ZNSt3__18ios_base8setstateB7v160006Ej, symObjAddr: 0x4A34, symBinAddr: 0x100007104, symSize: 0x34 }
  - { offsetInCU: 0x1CC25, offset: 0x1CC25, size: 0x8, addend: 0x0, symName: __ZNKSt3__113basic_filebufIcNS_11char_traitsIcEEE7is_openEv, symObjAddr: 0x4A68, symBinAddr: 0x100007138, symSize: 0x24 }
  - { offsetInCU: 0x1CC66, offset: 0x1CC66, size: 0x8, addend: 0x0, symName: __ZNKSt3__113basic_ostreamIcNS_11char_traitsIcEEE6sentrycvbB7v160006Ev, symObjAddr: 0x4C80, symBinAddr: 0x100007350, symSize: 0x1C }
  - { offsetInCU: 0x1CC8C, offset: 0x1CC8C, size: 0x8, addend: 0x0, symName: __ZNSt3__119ostreambuf_iteratorIcNS_11char_traitsIcEEEC1B7v160006ERNS_13basic_ostreamIcS2_EE, symObjAddr: 0x4EE4, symBinAddr: 0x1000075B4, symSize: 0x34 }
  - { offsetInCU: 0x1CCC4, offset: 0x1CCC4, size: 0x8, addend: 0x0, symName: __ZNKSt3__18ios_base5flagsB7v160006Ev, symObjAddr: 0x4F18, symBinAddr: 0x1000075E8, symSize: 0x18 }
  - { offsetInCU: 0x1CCEC, offset: 0x1CCEC, size: 0x8, addend: 0x0, symName: __ZNKSt3__19basic_iosIcNS_11char_traitsIcEEE4fillB7v160006Ev, symObjAddr: 0x4F30, symBinAddr: 0x100007600, symSize: 0x64 }
  - { offsetInCU: 0x1CD14, offset: 0x1CD14, size: 0x8, addend: 0x0, symName: __ZNKSt3__119ostreambuf_iteratorIcNS_11char_traitsIcEEE6failedB7v160006Ev, symObjAddr: 0x4F94, symBinAddr: 0x100007664, symSize: 0x24 }
  - { offsetInCU: 0x1CD3A, offset: 0x1CD3A, size: 0x8, addend: 0x0, symName: __ZNKSt3__18ios_base5widthB7v160006Ev, symObjAddr: 0x4FB8, symBinAddr: 0x100007688, symSize: 0x18 }
  - { offsetInCU: 0x1CD62, offset: 0x1CD62, size: 0x8, addend: 0x0, symName: __ZNSt3__115basic_streambufIcNS_11char_traitsIcEEE5sputnB7v160006EPKcl, symObjAddr: 0x4FD0, symBinAddr: 0x1000076A0, symSize: 0x3C }
  - { offsetInCU: 0x1CDA4, offset: 0x1CDA4, size: 0x8, addend: 0x0, symName: __ZNSt3__112basic_stringIcNS_11char_traitsIcEENS_9allocatorIcEEEC1B7v160006Emc, symObjAddr: 0x500C, symBinAddr: 0x1000076DC, symSize: 0x3C }
  - { offsetInCU: 0x1CDEC, offset: 0x1CDEC, size: 0x8, addend: 0x0, symName: __ZNSt3__18ios_base5widthB7v160006El, symObjAddr: 0x5048, symBinAddr: 0x100007718, symSize: 0x2C }
  - { offsetInCU: 0x1CE32, offset: 0x1CE32, size: 0x8, addend: 0x0, symName: __ZNSt3__112basic_stringIcNS_11char_traitsIcEENS_9allocatorIcEEEC2B7v160006Emc, symObjAddr: 0x5074, symBinAddr: 0x100007744, symSize: 0x54 }
  - { offsetInCU: 0x1CE7A, offset: 0x1CE7A, size: 0x8, addend: 0x0, symName: __ZNSt3__117__compressed_pairINS_12basic_stringIcNS_11char_traitsIcEENS_9allocatorIcEEE5__repES5_EC1B7v160006INS_18__default_init_tagESA_EEOT_OT0_, symObjAddr: 0x50C8, symBinAddr: 0x100007798, symSize: 0x3C }
  - { offsetInCU: 0x1CED2, offset: 0x1CED2, size: 0x8, addend: 0x0, symName: __ZNSt3__117__compressed_pairINS_12basic_stringIcNS_11char_traitsIcEENS_9allocatorIcEEE5__repES5_EC2B7v160006INS_18__default_init_tagESA_EEOT_OT0_, symObjAddr: 0x5104, symBinAddr: 0x1000077D4, symSize: 0x3C }
  - { offsetInCU: 0x1CF2A, offset: 0x1CF2A, size: 0x8, addend: 0x0, symName: __ZNSt3__122__compressed_pair_elemINS_9allocatorIcEELi1ELb1EEC2B7v160006ENS_18__default_init_tagE, symObjAddr: 0x5140, symBinAddr: 0x100007810, symSize: 0x2C }
  - { offsetInCU: 0x1CF5E, offset: 0x1CF5E, size: 0x8, addend: 0x0, symName: __ZNSt3__19allocatorIcEC2B7v160006Ev, symObjAddr: 0x516C, symBinAddr: 0x10000783C, symSize: 0x2C }
  - { offsetInCU: 0x1CF88, offset: 0x1CF88, size: 0x8, addend: 0x0, symName: __ZNSt3__116__non_trivial_ifILb1ENS_9allocatorIcEEEC2B7v160006Ev, symObjAddr: 0x5198, symBinAddr: 0x100007868, symSize: 0x14 }
  - { offsetInCU: 0x1CFB2, offset: 0x1CFB2, size: 0x8, addend: 0x0, symName: __ZNSt3__119ostreambuf_iteratorIcNS_11char_traitsIcEEEC2B7v160006ERNS_13basic_ostreamIcS2_EE, symObjAddr: 0x51AC, symBinAddr: 0x10000787C, symSize: 0x68 }
  - { offsetInCU: 0x1CFEA, offset: 0x1CFEA, size: 0x8, addend: 0x0, symName: __ZNKSt3__19basic_iosIcNS_11char_traitsIcEEE5rdbufB7v160006Ev, symObjAddr: 0x5214, symBinAddr: 0x1000078E4, symSize: 0x24 }
  - { offsetInCU: 0x1D012, offset: 0x1D012, size: 0x8, addend: 0x0, symName: __ZNKSt3__18ios_base5rdbufB7v160006Ev, symObjAddr: 0x5238, symBinAddr: 0x100007908, symSize: 0x18 }
  - { offsetInCU: 0x1D038, offset: 0x1D038, size: 0x8, addend: 0x0, symName: __ZNSt3__111char_traitsIcE11eq_int_typeEii, symObjAddr: 0x5250, symBinAddr: 0x100007920, symSize: 0x28 }
  - { offsetInCU: 0x1D069, offset: 0x1D069, size: 0x8, addend: 0x0, symName: __ZNKSt3__19basic_iosIcNS_11char_traitsIcEEE5widenB7v160006Ec, symObjAddr: 0x5278, symBinAddr: 0x100007948, symSize: 0x8C }
  - { offsetInCU: 0x1D0D7, offset: 0x1D0D7, size: 0x8, addend: 0x0, symName: __ZNKSt3__15ctypeIcE5widenB7v160006Ec, symObjAddr: 0x5330, symBinAddr: 0x100007A00, symSize: 0x38 }
  - { offsetInCU: 0x1D10C, offset: 0x1D10C, size: 0x8, addend: 0x0, symName: __ZNSt3__112basic_stringIcNS_11char_traitsIcEENS_9allocatorIcEEEC2B7v160006Ev, symObjAddr: 0x5368, symBinAddr: 0x100007A38, symSize: 0x44 }
  - { offsetInCU: 0x1D136, offset: 0x1D136, size: 0x8, addend: 0x0, symName: __ZNSt3__112basic_stringIcNS_11char_traitsIcEENS_9allocatorIcEEE14__default_initB7v160006Ev, symObjAddr: 0x53AC, symBinAddr: 0x100007A7C, symSize: 0xB0 }
  - { offsetInCU: 0x1D1A1, offset: 0x1D1A1, size: 0x8, addend: 0x0, symName: __ZNKSt3__113basic_istreamIcNS_11char_traitsIcEEE6sentrycvbB7v160006Ev, symObjAddr: 0x5694, symBinAddr: 0x100007D64, symSize: 0x1C }
  - { offsetInCU: 0x1D1C7, offset: 0x1D1C7, size: 0x8, addend: 0x0, symName: __ZNSt3__112basic_stringIcNS_11char_traitsIcEENS_9allocatorIcEEE5clearB7v160006Ev, symObjAddr: 0x56B0, symBinAddr: 0x100007D80, symSize: 0x9C }
  - { offsetInCU: 0x1D1EF, offset: 0x1D1EF, size: 0x8, addend: 0x0, symName: __ZNSt3__115basic_streambufIcNS_11char_traitsIcEEE6sbumpcB7v160006Ev, symObjAddr: 0x574C, symBinAddr: 0x100007E1C, symSize: 0x78 }
  - { offsetInCU: 0x1D215, offset: 0x1D215, size: 0x8, addend: 0x0, symName: __ZNSt3__111char_traitsIcE12to_char_typeEi, symObjAddr: 0x57C4, symBinAddr: 0x100007E94, symSize: 0x18 }
  - { offsetInCU: 0x1D238, offset: 0x1D238, size: 0x8, addend: 0x0, symName: __ZNSt3__111char_traitsIcE2eqEcc, symObjAddr: 0x57DC, symBinAddr: 0x100007EAC, symSize: 0x28 }
  - { offsetInCU: 0x1D269, offset: 0x1D269, size: 0x8, addend: 0x0, symName: __ZNSt3__18ios_base18__setstate_nothrowB7v160006Ej, symObjAddr: 0x5804, symBinAddr: 0x100007ED4, symSize: 0x64 }
  - { offsetInCU: 0x1D29E, offset: 0x1D29E, size: 0x8, addend: 0x0, symName: __ZNKSt3__19basic_iosIcNS_11char_traitsIcEEE10exceptionsB7v160006Ev, symObjAddr: 0x5868, symBinAddr: 0x100007F38, symSize: 0x24 }
  - { offsetInCU: 0x1D2C4, offset: 0x1D2C4, size: 0x8, addend: 0x0, symName: __ZNSt3__111char_traitsIcE6assignERcRKc, symObjAddr: 0x589C, symBinAddr: 0x100007F6C, symSize: 0x24 }
  - { offsetInCU: 0x1D2F5, offset: 0x1D2F5, size: 0x8, addend: 0x0, symName: __ZNSt3__111char_traitsIcE11to_int_typeEc, symObjAddr: 0x58C0, symBinAddr: 0x100007F90, symSize: 0x14 }
  - { offsetInCU: 0x1D318, offset: 0x1D318, size: 0x8, addend: 0x0, symName: __ZNKSt3__18ios_base10exceptionsB7v160006Ev, symObjAddr: 0x58D4, symBinAddr: 0x100007FA4, symSize: 0x18 }
  - { offsetInCU: 0x1D340, offset: 0x1D340, size: 0x8, addend: 0x0, symName: __ZNKSt3__19basic_iosIcNS_11char_traitsIcEEE4failB7v160006Ev, symObjAddr: 0x58EC, symBinAddr: 0x100007FBC, symSize: 0x28 }
  - { offsetInCU: 0x1D366, offset: 0x1D366, size: 0x8, addend: 0x0, symName: __ZNKSt3__18ios_base4failB7v160006Ev, symObjAddr: 0x5914, symBinAddr: 0x100007FE4, symSize: 0x28 }
  - { offsetInCU: 0x1D38E, offset: 0x1D38E, size: 0x8, addend: 0x0, symName: __ZNSt3__111char_traitsIcE4findEPKcmRS2_, symObjAddr: 0x5A18, symBinAddr: 0x1000080E8, symSize: 0x84 }
  - { offsetInCU: 0x1D3CD, offset: 0x1D3CD, size: 0x8, addend: 0x0, symName: __ZNSt3__19allocatorIcEC1B7v160006Ev, symObjAddr: 0x5AD0, symBinAddr: 0x1000081A0, symSize: 0x2C }
  - { offsetInCU: 0x1D3F7, offset: 0x1D3F7, size: 0x8, addend: 0x0, symName: __ZNSt3__119istreambuf_iteratorIcNS_11char_traitsIcEEEC2B7v160006ERNS_13basic_istreamIcS2_EE, symObjAddr: 0x5AFC, symBinAddr: 0x1000081CC, symSize: 0x68 }
  - { offsetInCU: 0x1D42F, offset: 0x1D42F, size: 0x8, addend: 0x0, symName: __ZNSt3__119istreambuf_iteratorIcNS_11char_traitsIcEEEC2B7v160006Ev, symObjAddr: 0x5B64, symBinAddr: 0x100008234, symSize: 0x18 }
  - { offsetInCU: 0x1D459, offset: 0x1D459, size: 0x8, addend: 0x0, symName: __ZNSt3__112basic_stringIcNS_11char_traitsIcEENS_9allocatorIcEEEC2B7v160006INS_19istreambuf_iteratorIcS2_EEvEET_S9_, symObjAddr: 0x5B7C, symBinAddr: 0x10000824C, symSize: 0x64 }
  - { offsetInCU: 0x1D4AB, offset: 0x1D4AB, size: 0x8, addend: 0x0, symName: __ZNSt3__112basic_stringIcNS_11char_traitsIcEENS_9allocatorIcEEE6__initINS_19istreambuf_iteratorIcS2_EEEENS_9enable_ifIXsr33__is_exactly_cpp17_input_iteratorIT_EE5valueEvE4typeESA_SA_, symObjAddr: 0x5BE0, symBinAddr: 0x1000082B0, symSize: 0x124 }
  - { offsetInCU: 0x1D4FA, offset: 0x1D4FA, size: 0x8, addend: 0x0, symName: __ZNKSt3__119istreambuf_iteratorIcNS_11char_traitsIcEEEdeB7v160006Ev, symObjAddr: 0x5D38, symBinAddr: 0x100008408, symSize: 0x2C }
  - { offsetInCU: 0x1D520, offset: 0x1D520, size: 0x8, addend: 0x0, symName: __ZNSt3__119istreambuf_iteratorIcNS_11char_traitsIcEEEppB7v160006Ev, symObjAddr: 0x5D64, symBinAddr: 0x100008434, symSize: 0x30 }
  - { offsetInCU: 0x1D546, offset: 0x1D546, size: 0x8, addend: 0x0, symName: __ZNSt3__116allocator_traitsINS_9allocatorIcEEE10deallocateB7v160006ERS2_Pcm, symObjAddr: 0x5D94, symBinAddr: 0x100008464, symSize: 0x34 }
  - { offsetInCU: 0x1D588, offset: 0x1D588, size: 0x8, addend: 0x0, symName: __ZNKSt3__112basic_stringIcNS_11char_traitsIcEENS_9allocatorIcEEE14__get_long_capB7v160006Ev, symObjAddr: 0x5DC8, symBinAddr: 0x100008498, symSize: 0x30 }
  - { offsetInCU: 0x1D5AE, offset: 0x1D5AE, size: 0x8, addend: 0x0, symName: __ZNKSt3__119istreambuf_iteratorIcNS_11char_traitsIcEEE5equalB7v160006ERKS3_, symObjAddr: 0x5DF8, symBinAddr: 0x1000084C8, symSize: 0x4C }
  - { offsetInCU: 0x1D5E2, offset: 0x1D5E2, size: 0x8, addend: 0x0, symName: __ZNKSt3__119istreambuf_iteratorIcNS_11char_traitsIcEEE14__test_for_eofB7v160006Ev, symObjAddr: 0x5E44, symBinAddr: 0x100008514, symSize: 0x80 }
  - { offsetInCU: 0x1D608, offset: 0x1D608, size: 0x8, addend: 0x0, symName: __ZNSt3__115basic_streambufIcNS_11char_traitsIcEEE5sgetcB7v160006Ev, symObjAddr: 0x5EC4, symBinAddr: 0x100008594, symSize: 0x70 }
  - { offsetInCU: 0x1D62E, offset: 0x1D62E, size: 0x8, addend: 0x0, symName: __ZNSt3__19allocatorIcE10deallocateB7v160006EPcm, symObjAddr: 0x5F34, symBinAddr: 0x100008604, symSize: 0x70 }
  - { offsetInCU: 0x1D670, offset: 0x1D670, size: 0x8, addend: 0x0, symName: __ZN4PageC2Em8pageTypeRKNSt3__112basic_stringIcNS1_11char_traitsIcEENS1_9allocatorIcEEEE, symObjAddr: 0x5FA4, symBinAddr: 0x100008674, symSize: 0xF8 }
  - { offsetInCU: 0x1D6C4, offset: 0x1D6C4, size: 0x8, addend: 0x0, symName: __ZNSt3__16vectorINS_4pairImNS_12basic_stringIcNS_11char_traitsIcEENS_9allocatorIcEEEEEENS5_IS8_EEEC1B7v160006Ev, symObjAddr: 0x609C, symBinAddr: 0x10000876C, symSize: 0x2C }
  - { offsetInCU: 0x1D6EE, offset: 0x1D6EE, size: 0x8, addend: 0x0, symName: __ZNSt3__13mapIm9ConditionNS_4lessImEENS_9allocatorINS_4pairIKmS1_EEEEEC1B7v160006Ev, symObjAddr: 0x60C8, symBinAddr: 0x100008798, symSize: 0x2C }
  - { offsetInCU: 0x1D718, offset: 0x1D718, size: 0x8, addend: 0x0, symName: __ZNSt3__16vectorINS_4pairImNS_12basic_stringIcNS_11char_traitsIcEENS_9allocatorIcEEEEEENS5_IS8_EEEC2B7v160006Ev, symObjAddr: 0x60F4, symBinAddr: 0x1000087C4, symSize: 0x4C }
  - { offsetInCU: 0x1D747, offset: 0x1D747, size: 0x8, addend: 0x0, symName: __ZNSt3__117__compressed_pairIPNS_4pairImNS_12basic_stringIcNS_11char_traitsIcEENS_9allocatorIcEEEEEENS5_IS8_EEEC1B7v160006IDnNS_18__default_init_tagEEEOT_OT0_, symObjAddr: 0x6140, symBinAddr: 0x100008810, symSize: 0x3C }
  - { offsetInCU: 0x1D79F, offset: 0x1D79F, size: 0x8, addend: 0x0, symName: __ZNSt3__117__compressed_pairIPNS_4pairImNS_12basic_stringIcNS_11char_traitsIcEENS_9allocatorIcEEEEEENS5_IS8_EEEC2B7v160006IDnNS_18__default_init_tagEEEOT_OT0_, symObjAddr: 0x618C, symBinAddr: 0x10000885C, symSize: 0x40 }
  - { offsetInCU: 0x1D7F7, offset: 0x1D7F7, size: 0x8, addend: 0x0, symName: __ZNSt3__122__compressed_pair_elemIPNS_4pairImNS_12basic_stringIcNS_11char_traitsIcEENS_9allocatorIcEEEEEELi0ELb0EEC2B7v160006IDnvEEOT_, symObjAddr: 0x61CC, symBinAddr: 0x10000889C, symSize: 0x1C }
  - { offsetInCU: 0x1D839, offset: 0x1D839, size: 0x8, addend: 0x0, symName: __ZNSt3__122__compressed_pair_elemINS_9allocatorINS_4pairImNS_12basic_stringIcNS_11char_traitsIcEENS1_IcEEEEEEEELi1ELb1EEC2B7v160006ENS_18__default_init_tagE, symObjAddr: 0x61E8, symBinAddr: 0x1000088B8, symSize: 0x2C }
  - { offsetInCU: 0x1D86D, offset: 0x1D86D, size: 0x8, addend: 0x0, symName: __ZNSt3__19allocatorINS_4pairImNS_12basic_stringIcNS_11char_traitsIcEENS0_IcEEEEEEEC2B7v160006Ev, symObjAddr: 0x6214, symBinAddr: 0x1000088E4, symSize: 0x2C }
  - { offsetInCU: 0x1D897, offset: 0x1D897, size: 0x8, addend: 0x0, symName: __ZNSt3__116__non_trivial_ifILb1ENS_9allocatorINS_4pairImNS_12basic_stringIcNS_11char_traitsIcEENS1_IcEEEEEEEEEC2B7v160006Ev, symObjAddr: 0x6240, symBinAddr: 0x100008910, symSize: 0x14 }
  - { offsetInCU: 0x1D8C1, offset: 0x1D8C1, size: 0x8, addend: 0x0, symName: __ZNSt3__13mapIm9ConditionNS_4lessImEENS_9allocatorINS_4pairIKmS1_EEEEEC2B7v160006Ev, symObjAddr: 0x6254, symBinAddr: 0x100008924, symSize: 0x40 }
  - { offsetInCU: 0x1D8EB, offset: 0x1D8EB, size: 0x8, addend: 0x0, symName: __ZNSt3__119__map_value_compareImNS_12__value_typeIm9ConditionEENS_4lessImEELb1EEC1B7v160006ES5_, symObjAddr: 0x6294, symBinAddr: 0x100008964, symSize: 0x2C }
  - { offsetInCU: 0x1D924, offset: 0x1D924, size: 0x8, addend: 0x0, symName: __ZNSt3__16__treeINS_12__value_typeIm9ConditionEENS_19__map_value_compareImS3_NS_4lessImEELb1EEENS_9allocatorIS3_EEEC1ERKS7_, symObjAddr: 0x62C0, symBinAddr: 0x100008990, symSize: 0x34 }
  - { offsetInCU: 0x1D95F, offset: 0x1D95F, size: 0x8, addend: 0x0, symName: __ZNSt3__119__map_value_compareImNS_12__value_typeIm9ConditionEENS_4lessImEELb1EEC2B7v160006ES5_, symObjAddr: 0x62F4, symBinAddr: 0x1000089C4, symSize: 0x14 }
  - { offsetInCU: 0x1D998, offset: 0x1D998, size: 0x8, addend: 0x0, symName: __ZNSt3__16__treeINS_12__value_typeIm9ConditionEENS_19__map_value_compareImS3_NS_4lessImEELb1EEENS_9allocatorIS3_EEEC2ERKS7_, symObjAddr: 0x6308, symBinAddr: 0x1000089D8, symSize: 0x70 }
  - { offsetInCU: 0x1D9D3, offset: 0x1D9D3, size: 0x8, addend: 0x0, symName: __ZNSt3__117__compressed_pairINS_15__tree_end_nodeIPNS_16__tree_node_baseIPvEEEENS_9allocatorINS_11__tree_nodeINS_12__value_typeIm9ConditionEES3_EEEEEC1B7v160006ILb1EvEEv, symObjAddr: 0x6378, symBinAddr: 0x100008A48, symSize: 0x2C }
  - { offsetInCU: 0x1DA08, offset: 0x1DA08, size: 0x8, addend: 0x0, symName: __ZNSt3__117__compressed_pairImNS_19__map_value_compareImNS_12__value_typeIm9ConditionEENS_4lessImEELb1EEEEC1B7v160006IiRKS7_EEOT_OT0_, symObjAddr: 0x63A4, symBinAddr: 0x100008A74, symSize: 0x3C }
  - { offsetInCU: 0x1DA60, offset: 0x1DA60, size: 0x8, addend: 0x0, symName: __ZNSt3__16__treeINS_12__value_typeIm9ConditionEENS_19__map_value_compareImS3_NS_4lessImEELb1EEENS_9allocatorIS3_EEE10__end_nodeB7v160006Ev, symObjAddr: 0x63E0, symBinAddr: 0x100008AB0, symSize: 0x2C }
  - { offsetInCU: 0x1DA86, offset: 0x1DA86, size: 0x8, addend: 0x0, symName: __ZNSt3__16__treeINS_12__value_typeIm9ConditionEENS_19__map_value_compareImS3_NS_4lessImEELb1EEENS_9allocatorIS3_EEE12__begin_nodeB7v160006Ev, symObjAddr: 0x640C, symBinAddr: 0x100008ADC, symSize: 0x14 }
  - { offsetInCU: 0x1DAAC, offset: 0x1DAAC, size: 0x8, addend: 0x0, symName: __ZNSt3__117__compressed_pairINS_15__tree_end_nodeIPNS_16__tree_node_baseIPvEEEENS_9allocatorINS_11__tree_nodeINS_12__value_typeIm9ConditionEES3_EEEEEC2B7v160006ILb1EvEEv, symObjAddr: 0x6420, symBinAddr: 0x100008AF0, symSize: 0x34 }
  - { offsetInCU: 0x1DAE1, offset: 0x1DAE1, size: 0x8, addend: 0x0, symName: __ZNSt3__122__compressed_pair_elemINS_9allocatorINS_11__tree_nodeINS_12__value_typeIm9ConditionEEPvEEEELi1ELb1EEC2B7v160006ENS_16__value_init_tagE, symObjAddr: 0x6454, symBinAddr: 0x100008B24, symSize: 0x2C }
  - { offsetInCU: 0x1DB15, offset: 0x1DB15, size: 0x8, addend: 0x0, symName: __ZNSt3__19allocatorINS_11__tree_nodeINS_12__value_typeIm9ConditionEEPvEEEC2B7v160006Ev, symObjAddr: 0x6480, symBinAddr: 0x100008B50, symSize: 0x2C }
  - { offsetInCU: 0x1DB3F, offset: 0x1DB3F, size: 0x8, addend: 0x0, symName: __ZNSt3__116__non_trivial_ifILb1ENS_9allocatorINS_11__tree_nodeINS_12__value_typeIm9ConditionEEPvEEEEEC2B7v160006Ev, symObjAddr: 0x64AC, symBinAddr: 0x100008B7C, symSize: 0x14 }
  - { offsetInCU: 0x1DB69, offset: 0x1DB69, size: 0x8, addend: 0x0, symName: __ZNSt3__117__compressed_pairImNS_19__map_value_compareImNS_12__value_typeIm9ConditionEENS_4lessImEELb1EEEEC2B7v160006IiRKS7_EEOT_OT0_, symObjAddr: 0x64C0, symBinAddr: 0x100008B90, symSize: 0x44 }
  - { offsetInCU: 0x1DBC1, offset: 0x1DBC1, size: 0x8, addend: 0x0, symName: __ZNSt3__122__compressed_pair_elemINS_19__map_value_compareImNS_12__value_typeIm9ConditionEENS_4lessImEELb1EEELi1ELb1EEC2B7v160006IRKS7_vEEOT_, symObjAddr: 0x6504, symBinAddr: 0x100008BD4, symSize: 0x18 }
  - { offsetInCU: 0x1DC03, offset: 0x1DC03, size: 0x8, addend: 0x0, symName: __ZNSt3__117__compressed_pairINS_15__tree_end_nodeIPNS_16__tree_node_baseIPvEEEENS_9allocatorINS_11__tree_nodeINS_12__value_typeIm9ConditionEES3_EEEEE5firstB7v160006Ev, symObjAddr: 0x651C, symBinAddr: 0x100008BEC, symSize: 0x24 }
  - { offsetInCU: 0x1DC29, offset: 0x1DC29, size: 0x8, addend: 0x0, symName: __ZNSt3__13mapIm4PageNS_4lessImEENS_9allocatorINS_4pairIKmS1_EEEEEixERS6_, symObjAddr: 0x6540, symBinAddr: 0x100008C10, symSize: 0xC8 }
  - { offsetInCU: 0x1DCA2, offset: 0x1DCA2, size: 0x8, addend: 0x0, symName: __ZNK4Page9getNumberEv, symObjAddr: 0x6608, symBinAddr: 0x100008CD8, symSize: 0x18 }
  - { offsetInCU: 0x1DCCD, offset: 0x1DCCD, size: 0x8, addend: 0x0, symName: __ZN4PageaSERKS_, symObjAddr: 0x6620, symBinAddr: 0x100008CF0, symSize: 0x8C }
  - { offsetInCU: 0x1DCFE, offset: 0x1DCFE, size: 0x8, addend: 0x0, symName: __ZNSt3__16__treeINS_12__value_typeIm4PageEENS_19__map_value_compareImS3_NS_4lessImEELb1EEENS_9allocatorIS3_EEE12__find_equalImEERPNS_16__tree_node_baseIPvEERPNS_15__tree_end_nodeISF_EERKT_, symObjAddr: 0x66AC, symBinAddr: 0x100008D7C, symSize: 0x184 }
  - { offsetInCU: 0x1DD6B, offset: 0x1DD6B, size: 0x8, addend: 0x0, symName: __ZNSt3__13mapIm4PageNS_4lessImEENS_9allocatorINS_4pairIKmS1_EEEEE25__construct_node_with_keyERS6_, symObjAddr: 0x6830, symBinAddr: 0x100008F00, symSize: 0x144 }
  - { offsetInCU: 0x1DDC1, offset: 0x1DDC1, size: 0x8, addend: 0x0, symName: __ZNSt3__16__treeINS_12__value_typeIm4PageEENS_19__map_value_compareImS3_NS_4lessImEELb1EEENS_9allocatorIS3_EEE16__insert_node_atEPNS_15__tree_end_nodeIPNS_16__tree_node_baseIPvEEEERSF_SF_, symObjAddr: 0x6974, symBinAddr: 0x100009044, symSize: 0xCC }
  - { offsetInCU: 0x1DE16, offset: 0x1DE16, size: 0x8, addend: 0x0, symName: __ZNKSt3__110unique_ptrINS_11__tree_nodeINS_12__value_typeIm4PageEEPvEENS_21__map_node_destructorINS_9allocatorIS6_EEEEE3getB7v160006Ev, symObjAddr: 0x6A40, symBinAddr: 0x100009110, symSize: 0x28 }
  - { offsetInCU: 0x1DE3C, offset: 0x1DE3C, size: 0x8, addend: 0x0, symName: __ZNSt3__110unique_ptrINS_11__tree_nodeINS_12__value_typeIm4PageEEPvEENS_21__map_node_destructorINS_9allocatorIS6_EEEEE7releaseB7v160006Ev, symObjAddr: 0x6A68, symBinAddr: 0x100009138, symSize: 0x44 }
  - { offsetInCU: 0x1DE71, offset: 0x1DE71, size: 0x8, addend: 0x0, symName: __ZNSt3__110unique_ptrINS_11__tree_nodeINS_12__value_typeIm4PageEEPvEENS_21__map_node_destructorINS_9allocatorIS6_EEEEED1B7v160006Ev, symObjAddr: 0x6AAC, symBinAddr: 0x10000917C, symSize: 0x2C }
  - { offsetInCU: 0x1DE9B, offset: 0x1DE9B, size: 0x8, addend: 0x0, symName: __ZNKSt3__16__treeINS_12__value_typeIm4PageEENS_19__map_value_compareImS3_NS_4lessImEELb1EEENS_9allocatorIS3_EEE10__root_ptrEv, symObjAddr: 0x6AD8, symBinAddr: 0x1000091A8, symSize: 0x24 }
  - { offsetInCU: 0x1DEC1, offset: 0x1DEC1, size: 0x8, addend: 0x0, symName: __ZNSt3__16__treeINS_12__value_typeIm4PageEENS_19__map_value_compareImS3_NS_4lessImEELb1EEENS_9allocatorIS3_EEE10value_compB7v160006Ev, symObjAddr: 0x6AFC, symBinAddr: 0x1000091CC, symSize: 0x28 }
  - { offsetInCU: 0x1DEE7, offset: 0x1DEE7, size: 0x8, addend: 0x0, symName: __ZNKSt3__119__map_value_compareImNS_12__value_typeIm4PageEENS_4lessImEELb1EEclB7v160006ERKmRKS3_, symObjAddr: 0x6B24, symBinAddr: 0x1000091F4, symSize: 0x50 }
  - { offsetInCU: 0x1DF2B, offset: 0x1DF2B, size: 0x8, addend: 0x0, symName: __ZNKSt3__119__map_value_compareImNS_12__value_typeIm4PageEENS_4lessImEELb1EEclB7v160006ERKS3_RKm, symObjAddr: 0x6B74, symBinAddr: 0x100009244, symSize: 0x48 }
  - { offsetInCU: 0x1DF6F, offset: 0x1DF6F, size: 0x8, addend: 0x0, symName: __ZNSt3__117__compressed_pairImNS_19__map_value_compareImNS_12__value_typeIm4PageEENS_4lessImEELb1EEEE6secondB7v160006Ev, symObjAddr: 0x6BBC, symBinAddr: 0x10000928C, symSize: 0x24 }
  - { offsetInCU: 0x1DF95, offset: 0x1DF95, size: 0x8, addend: 0x0, symName: __ZNSt3__122__compressed_pair_elemINS_19__map_value_compareImNS_12__value_typeIm4PageEENS_4lessImEELb1EEELi1ELb1EE5__getB7v160006Ev, symObjAddr: 0x6BE0, symBinAddr: 0x1000092B0, symSize: 0x14 }
  - { offsetInCU: 0x1DFBB, offset: 0x1DFBB, size: 0x8, addend: 0x0, symName: __ZNKSt3__14lessImEclB7v160006ERKmS3_, symObjAddr: 0x6BF4, symBinAddr: 0x1000092C4, symSize: 0x34 }
  - { offsetInCU: 0x1DFFF, offset: 0x1DFFF, size: 0x8, addend: 0x0, symName: __ZNKSt3__112__value_typeIm4PageE11__get_valueB7v160006Ev, symObjAddr: 0x6C28, symBinAddr: 0x1000092F8, symSize: 0x14 }
  - { offsetInCU: 0x1E025, offset: 0x1E025, size: 0x8, addend: 0x0, symName: __ZNSt3__116allocator_traitsINS_9allocatorINS_11__tree_nodeINS_12__value_typeIm4PageEEPvEEEEE8allocateB7v160006ERS8_m, symObjAddr: 0x6C3C, symBinAddr: 0x10000930C, symSize: 0x2C }
  - { offsetInCU: 0x1E058, offset: 0x1E058, size: 0x8, addend: 0x0, symName: __ZNSt3__121__map_node_destructorINS_9allocatorINS_11__tree_nodeINS_12__value_typeIm4PageEEPvEEEEEC1B7v160006ERS8_, symObjAddr: 0x6C68, symBinAddr: 0x100009338, symSize: 0x34 }
  - { offsetInCU: 0x1E096, offset: 0x1E096, size: 0x8, addend: 0x0, symName: __ZNSt3__110unique_ptrINS_11__tree_nodeINS_12__value_typeIm4PageEEPvEENS_21__map_node_destructorINS_9allocatorIS6_EEEEEC1B7v160006ILb1EvEEPS6_NS_16__dependent_typeINS_27__unique_ptr_deleter_sfinaeISA_EEXT_EE20__good_rval_ref_typeE, symObjAddr: 0x6C9C, symBinAddr: 0x10000936C, symSize: 0x3C }
  - { offsetInCU: 0x1E0E7, offset: 0x1E0E7, size: 0x8, addend: 0x0, symName: __ZNSt3__116allocator_traitsINS_9allocatorINS_11__tree_nodeINS_12__value_typeIm4PageEEPvEEEEE9constructB7v160006IKmJRSB_EvEEvRS8_PT_DpOT0_, symObjAddr: 0x6CD8, symBinAddr: 0x1000093A8, symSize: 0x34 }
  - { offsetInCU: 0x1E13E, offset: 0x1E13E, size: 0x8, addend: 0x0, symName: __ZNKSt3__110unique_ptrINS_11__tree_nodeINS_12__value_typeIm4PageEEPvEENS_21__map_node_destructorINS_9allocatorIS6_EEEEEptB7v160006Ev, symObjAddr: 0x6D0C, symBinAddr: 0x1000093DC, symSize: 0x28 }
  - { offsetInCU: 0x1E164, offset: 0x1E164, size: 0x8, addend: 0x0, symName: __ZNSt3__110unique_ptrINS_11__tree_nodeINS_12__value_typeIm4PageEEPvEENS_21__map_node_destructorINS_9allocatorIS6_EEEEE11get_deleterB7v160006Ev, symObjAddr: 0x6D34, symBinAddr: 0x100009404, symSize: 0x24 }
  - { offsetInCU: 0x1E18A, offset: 0x1E18A, size: 0x8, addend: 0x0, symName: __ZNSt3__116allocator_traitsINS_9allocatorINS_11__tree_nodeINS_12__value_typeIm4PageEEPvEEEEE9constructB7v160006IS4_JEvEEvRS8_PT_DpOT0_, symObjAddr: 0x6D58, symBinAddr: 0x100009428, symSize: 0x2C }
  - { offsetInCU: 0x1E1CC, offset: 0x1E1CC, size: 0x8, addend: 0x0, symName: __ZNSt3__19allocatorINS_11__tree_nodeINS_12__value_typeIm4PageEEPvEEE8allocateB7v160006Em, symObjAddr: 0x6D84, symBinAddr: 0x100009454, symSize: 0x8C }
  - { offsetInCU: 0x1E20A, offset: 0x1E20A, size: 0x8, addend: 0x0, symName: __ZNSt3__116allocator_traitsINS_9allocatorINS_11__tree_nodeINS_12__value_typeIm4PageEEPvEEEEE8max_sizeB7v160006IS8_vEEmRKS8_, symObjAddr: 0x6E10, symBinAddr: 0x1000094E0, symSize: 0x24 }
  - { offsetInCU: 0x1E238, offset: 0x1E238, size: 0x8, addend: 0x0, symName: __ZNKSt3__19allocatorINS_11__tree_nodeINS_12__value_typeIm4PageEEPvEEE8max_sizeB7v160006Ev, symObjAddr: 0x6E34, symBinAddr: 0x100009504, symSize: 0x20 }
  - { offsetInCU: 0x1E25E, offset: 0x1E25E, size: 0x8, addend: 0x0, symName: __ZNSt3__121__map_node_destructorINS_9allocatorINS_11__tree_nodeINS_12__value_typeIm4PageEEPvEEEEEC2B7v160006ERS8_, symObjAddr: 0x6E54, symBinAddr: 0x100009524, symSize: 0x28 }
  - { offsetInCU: 0x1E297, offset: 0x1E297, size: 0x8, addend: 0x0, symName: __ZNSt3__110unique_ptrINS_11__tree_nodeINS_12__value_typeIm4PageEEPvEENS_21__map_node_destructorINS_9allocatorIS6_EEEEEC2B7v160006ILb1EvEEPS6_NS_16__dependent_typeINS_27__unique_ptr_deleter_sfinaeISA_EEXT_EE20__good_rval_ref_typeE, symObjAddr: 0x6E7C, symBinAddr: 0x10000954C, symSize: 0x5C }
  - { offsetInCU: 0x1E2E8, offset: 0x1E2E8, size: 0x8, addend: 0x0, symName: __ZNSt3__117__compressed_pairIPNS_11__tree_nodeINS_12__value_typeIm4PageEEPvEENS_21__map_node_destructorINS_9allocatorIS6_EEEEEC1B7v160006IRS7_SB_EEOT_OT0_, symObjAddr: 0x6ED8, symBinAddr: 0x1000095A8, symSize: 0x3C }
  - { offsetInCU: 0x1E340, offset: 0x1E340, size: 0x8, addend: 0x0, symName: __ZNSt3__117__compressed_pairIPNS_11__tree_nodeINS_12__value_typeIm4PageEEPvEENS_21__map_node_destructorINS_9allocatorIS6_EEEEEC2B7v160006IRS7_SB_EEOT_OT0_, symObjAddr: 0x6F14, symBinAddr: 0x1000095E4, symSize: 0x48 }
  - { offsetInCU: 0x1E398, offset: 0x1E398, size: 0x8, addend: 0x0, symName: __ZNSt3__122__compressed_pair_elemIPNS_11__tree_nodeINS_12__value_typeIm4PageEEPvEELi0ELb0EEC2B7v160006IRS7_vEEOT_, symObjAddr: 0x6F5C, symBinAddr: 0x10000962C, symSize: 0x24 }
  - { offsetInCU: 0x1E3DA, offset: 0x1E3DA, size: 0x8, addend: 0x0, symName: __ZNSt3__122__compressed_pair_elemINS_21__map_node_destructorINS_9allocatorINS_11__tree_nodeINS_12__value_typeIm4PageEEPvEEEEEELi1ELb0EEC2B7v160006ISA_vEEOT_, symObjAddr: 0x6F80, symBinAddr: 0x100009650, symSize: 0x24 }
  - { offsetInCU: 0x1E41C, offset: 0x1E41C, size: 0x8, addend: 0x0, symName: __ZNSt3__19allocatorINS_11__tree_nodeINS_12__value_typeIm4PageEEPvEEE9constructB7v160006IKmJRS9_EEEvPT_DpOT0_, symObjAddr: 0x6FA4, symBinAddr: 0x100009674, symSize: 0x28 }
  - { offsetInCU: 0x1E472, offset: 0x1E472, size: 0x8, addend: 0x0, symName: __ZNKSt3__117__compressed_pairIPNS_11__tree_nodeINS_12__value_typeIm4PageEEPvEENS_21__map_node_destructorINS_9allocatorIS6_EEEEE5firstB7v160006Ev, symObjAddr: 0x6FCC, symBinAddr: 0x10000969C, symSize: 0x24 }
  - { offsetInCU: 0x1E498, offset: 0x1E498, size: 0x8, addend: 0x0, symName: __ZNKSt3__122__compressed_pair_elemIPNS_11__tree_nodeINS_12__value_typeIm4PageEEPvEELi0ELb0EE5__getB7v160006Ev, symObjAddr: 0x6FF0, symBinAddr: 0x1000096C0, symSize: 0x14 }
  - { offsetInCU: 0x1E4BE, offset: 0x1E4BE, size: 0x8, addend: 0x0, symName: __ZNSt3__117__compressed_pairIPNS_11__tree_nodeINS_12__value_typeIm4PageEEPvEENS_21__map_node_destructorINS_9allocatorIS6_EEEEE6secondB7v160006Ev, symObjAddr: 0x7004, symBinAddr: 0x1000096D4, symSize: 0x28 }
  - { offsetInCU: 0x1E4E4, offset: 0x1E4E4, size: 0x8, addend: 0x0, symName: __ZNSt3__122__compressed_pair_elemINS_21__map_node_destructorINS_9allocatorINS_11__tree_nodeINS_12__value_typeIm4PageEEPvEEEEEELi1ELb0EE5__getB7v160006Ev, symObjAddr: 0x702C, symBinAddr: 0x1000096FC, symSize: 0x14 }
  - { offsetInCU: 0x1E50A, offset: 0x1E50A, size: 0x8, addend: 0x0, symName: __ZNSt3__19allocatorINS_11__tree_nodeINS_12__value_typeIm4PageEEPvEEE9constructB7v160006IS3_JEEEvPT_DpOT0_, symObjAddr: 0x7040, symBinAddr: 0x100009710, symSize: 0x28 }
  - { offsetInCU: 0x1E54C, offset: 0x1E54C, size: 0x8, addend: 0x0, symName: __ZN4PageC1Ev, symObjAddr: 0x7068, symBinAddr: 0x100009738, symSize: 0x2C }
  - { offsetInCU: 0x1E576, offset: 0x1E576, size: 0x8, addend: 0x0, symName: __ZN4PageC2Ev, symObjAddr: 0x7094, symBinAddr: 0x100009764, symSize: 0xE0 }
  - { offsetInCU: 0x1E5A0, offset: 0x1E5A0, size: 0x8, addend: 0x0, symName: __ZNSt3__16__treeINS_12__value_typeIm4PageEENS_19__map_value_compareImS3_NS_4lessImEELb1EEENS_9allocatorIS3_EEE4sizeB7v160006Ev, symObjAddr: 0x74B4, symBinAddr: 0x100009B84, symSize: 0x28 }
  - { offsetInCU: 0x1E5C6, offset: 0x1E5C6, size: 0x8, addend: 0x0, symName: __ZNKSt3__116__tree_node_baseIPvE15__parent_unsafeB7v160006Ev, symObjAddr: 0x74DC, symBinAddr: 0x100009BAC, symSize: 0x18 }
  - { offsetInCU: 0x1E5EC, offset: 0x1E5EC, size: 0x8, addend: 0x0, symName: __ZNSt3__116__tree_node_baseIPvE12__set_parentB7v160006EPS2_, symObjAddr: 0x76D8, symBinAddr: 0x100009DA8, symSize: 0x20 }
  - { offsetInCU: 0x1E621, offset: 0x1E621, size: 0x8, addend: 0x0, symName: __ZNSt3__117__compressed_pairImNS_19__map_value_compareImNS_12__value_typeIm4PageEENS_4lessImEELb1EEEE5firstB7v160006Ev, symObjAddr: 0x76F8, symBinAddr: 0x100009DC8, symSize: 0x24 }
  - { offsetInCU: 0x1E647, offset: 0x1E647, size: 0x8, addend: 0x0, symName: __ZNSt3__122__compressed_pair_elemImLi0ELb0EE5__getB7v160006Ev, symObjAddr: 0x771C, symBinAddr: 0x100009DEC, symSize: 0x14 }
  - { offsetInCU: 0x1E66D, offset: 0x1E66D, size: 0x8, addend: 0x0, symName: __ZNSt3__117__compressed_pairIPNS_11__tree_nodeINS_12__value_typeIm4PageEEPvEENS_21__map_node_destructorINS_9allocatorIS6_EEEEE5firstB7v160006Ev, symObjAddr: 0x7730, symBinAddr: 0x100009E00, symSize: 0x24 }
  - { offsetInCU: 0x1E693, offset: 0x1E693, size: 0x8, addend: 0x0, symName: __ZNSt3__122__compressed_pair_elemIPNS_11__tree_nodeINS_12__value_typeIm4PageEEPvEELi0ELb0EE5__getB7v160006Ev, symObjAddr: 0x7754, symBinAddr: 0x100009E24, symSize: 0x14 }
  - { offsetInCU: 0x1E6B9, offset: 0x1E6B9, size: 0x8, addend: 0x0, symName: __ZNSt3__110unique_ptrINS_11__tree_nodeINS_12__value_typeIm4PageEEPvEENS_21__map_node_destructorINS_9allocatorIS6_EEEEED2B7v160006Ev, symObjAddr: 0x7768, symBinAddr: 0x100009E38, symSize: 0x30 }
  - { offsetInCU: 0x1E6E3, offset: 0x1E6E3, size: 0x8, addend: 0x0, symName: __ZNSt3__110unique_ptrINS_11__tree_nodeINS_12__value_typeIm4PageEEPvEENS_21__map_node_destructorINS_9allocatorIS6_EEEEE5resetB7v160006EPS6_, symObjAddr: 0x7798, symBinAddr: 0x100009E68, symSize: 0x78 }
  - { offsetInCU: 0x1E727, offset: 0x1E727, size: 0x8, addend: 0x0, symName: __ZNSt3__121__map_node_destructorINS_9allocatorINS_11__tree_nodeINS_12__value_typeIm4PageEEPvEEEEEclB7v160006EPS7_, symObjAddr: 0x7810, symBinAddr: 0x100009EE0, symSize: 0xE4 }
  - { offsetInCU: 0x1E75C, offset: 0x1E75C, size: 0x8, addend: 0x0, symName: __ZNSt3__116allocator_traitsINS_9allocatorINS_11__tree_nodeINS_12__value_typeIm4PageEEPvEEEEE7destroyB7v160006IS4_vvEEvRS8_PT_, symObjAddr: 0x78F4, symBinAddr: 0x100009FC4, symSize: 0x28 }
  - { offsetInCU: 0x1E797, offset: 0x1E797, size: 0x8, addend: 0x0, symName: __ZNSt3__116allocator_traitsINS_9allocatorINS_11__tree_nodeINS_12__value_typeIm4PageEEPvEEEEE7destroyB7v160006IKmvvEEvRS8_PT_, symObjAddr: 0x791C, symBinAddr: 0x100009FEC, symSize: 0x14 }
  - { offsetInCU: 0x1E7D2, offset: 0x1E7D2, size: 0x8, addend: 0x0, symName: __ZNSt3__16vectorINS_4pairImNS_12basic_stringIcNS_11char_traitsIcEENS_9allocatorIcEEEEEENS5_IS8_EEEaSB7v160006ERKSA_, symObjAddr: 0x7930, symBinAddr: 0x10000A000, symSize: 0x68 }
  - { offsetInCU: 0x1E809, offset: 0x1E809, size: 0x8, addend: 0x0, symName: __ZNSt3__13mapINS_12basic_stringIcNS_11char_traitsIcEENS_9allocatorIcEEEElNS_4lessIS6_EENS4_INS_4pairIKS6_lEEEEEaSB7v160006ERKSD_, symObjAddr: 0x7998, symBinAddr: 0x10000A068, symSize: 0x94 }
  - { offsetInCU: 0x1E83E, offset: 0x1E83E, size: 0x8, addend: 0x0, symName: __ZNSt3__13mapIm9ConditionNS_4lessImEENS_9allocatorINS_4pairIKmS1_EEEEEaSB7v160006ERKS9_, symObjAddr: 0x7A2C, symBinAddr: 0x10000A0FC, symSize: 0x94 }
  - { offsetInCU: 0x1E873, offset: 0x1E873, size: 0x8, addend: 0x0, symName: __ZNSt3__16vectorINS_4pairImNS_12basic_stringIcNS_11char_traitsIcEENS_9allocatorIcEEEEEENS5_IS8_EEE19__copy_assign_allocB7v160006ERKSA_, symObjAddr: 0x7AC0, symBinAddr: 0x10000A190, symSize: 0x2C }
  - { offsetInCU: 0x1E8A8, offset: 0x1E8A8, size: 0x8, addend: 0x0, symName: __ZNSt3__16vectorINS_4pairImNS_12basic_stringIcNS_11char_traitsIcEENS_9allocatorIcEEEEEENS5_IS8_EEE6assignIPS8_Li0EEEvT_SD_, symObjAddr: 0x7AEC, symBinAddr: 0x10000A1BC, symSize: 0x17C }
  - { offsetInCU: 0x1E947, offset: 0x1E947, size: 0x8, addend: 0x0, symName: __ZNSt3__16vectorINS_4pairImNS_12basic_stringIcNS_11char_traitsIcEENS_9allocatorIcEEEEEENS5_IS8_EEE19__copy_assign_allocB7v160006ERKSA_NS_17integral_constantIbLb0EEE, symObjAddr: 0x7C68, symBinAddr: 0x10000A338, symSize: 0x14 }
  - { offsetInCU: 0x1E985, offset: 0x1E985, size: 0x8, addend: 0x0, symName: __ZNSt3__16vectorINS_4pairImNS_12basic_stringIcNS_11char_traitsIcEENS_9allocatorIcEEEEEENS5_IS8_EEE18__construct_at_endIPS8_Li0EEEvT_SD_m, symObjAddr: 0x7D38, symBinAddr: 0x10000A408, symSize: 0x94 }
  - { offsetInCU: 0x1E9F8, offset: 0x1E9F8, size: 0x8, addend: 0x0, symName: __ZNSt3__16vectorINS_4pairImNS_12basic_stringIcNS_11char_traitsIcEENS_9allocatorIcEEEEEENS5_IS8_EEE17__destruct_at_endB7v160006EPS8_, symObjAddr: 0x7DCC, symBinAddr: 0x10000A49C, symSize: 0x88 }
  - { offsetInCU: 0x1EA3C, offset: 0x1EA3C, size: 0x8, addend: 0x0, symName: __ZNSt3__16vectorINS_4pairImNS_12basic_stringIcNS_11char_traitsIcEENS_9allocatorIcEEEEEENS5_IS8_EEE13__vdeallocateEv, symObjAddr: 0x7E54, symBinAddr: 0x10000A524, symSize: 0x8C }
  - { offsetInCU: 0x1EA64, offset: 0x1EA64, size: 0x8, addend: 0x0, symName: __ZNSt3__16vectorINS_4pairImNS_12basic_stringIcNS_11char_traitsIcEENS_9allocatorIcEEEEEENS5_IS8_EEE11__vallocateB7v160006Em, symObjAddr: 0x7EE0, symBinAddr: 0x10000A5B0, symSize: 0xAC }
  - { offsetInCU: 0x1EAA8, offset: 0x1EAA8, size: 0x8, addend: 0x0, symName: __ZNKSt3__16vectorINS_4pairImNS_12basic_stringIcNS_11char_traitsIcEENS_9allocatorIcEEEEEENS5_IS8_EEE11__recommendB7v160006Em, symObjAddr: 0x7F8C, symBinAddr: 0x10000A65C, symSize: 0xB4 }
  - { offsetInCU: 0x1EB20, offset: 0x1EB20, size: 0x8, addend: 0x0, symName: __ZNKSt3__111__copy_loopINS_17_ClassicAlgPolicyEEclB7v160006IPNS_4pairImNS_12basic_stringIcNS_11char_traitsIcEENS_9allocatorIcEEEEEESC_SC_EENS4_IT_T1_EESD_T0_SE_, symObjAddr: 0x831C, symBinAddr: 0x10000A9EC, symSize: 0x88 }
  - { offsetInCU: 0x1EB8B, offset: 0x1EB8B, size: 0x8, addend: 0x0, symName: __ZNSt3__14pairImNS_12basic_stringIcNS_11char_traitsIcEENS_9allocatorIcEEEEEaSB7v160006ERKS7_, symObjAddr: 0x847C, symBinAddr: 0x10000AB4C, symSize: 0x48 }
  - { offsetInCU: 0x1EBBF, offset: 0x1EBBF, size: 0x8, addend: 0x0, symName: __ZNSt3__118__unwrap_iter_implIPNS_4pairImNS_12basic_stringIcNS_11char_traitsIcEENS_9allocatorIcEEEEEELb1EE8__unwrapB7v160006ES9_, symObjAddr: 0x84C4, symBinAddr: 0x10000AB94, symSize: 0x24 }
  - { offsetInCU: 0x1EBE2, offset: 0x1EBE2, size: 0x8, addend: 0x0, symName: __ZNSt3__14pairIPNS0_ImNS_12basic_stringIcNS_11char_traitsIcEENS_9allocatorIcEEEEEES8_EC1B7v160006ERKS8_SB_, symObjAddr: 0x84E8, symBinAddr: 0x10000ABB8, symSize: 0x3C }
  - { offsetInCU: 0x1EC28, offset: 0x1EC28, size: 0x8, addend: 0x0, symName: __ZNSt3__14pairIPNS0_ImNS_12basic_stringIcNS_11char_traitsIcEENS_9allocatorIcEEEEEES8_EC2B7v160006ERKS8_SB_, symObjAddr: 0x8524, symBinAddr: 0x10000ABF4, symSize: 0x34 }
  - { offsetInCU: 0x1EC6E, offset: 0x1EC6E, size: 0x8, addend: 0x0, symName: __ZNSt3__118__unwrap_iter_implIPNS_4pairImNS_12basic_stringIcNS_11char_traitsIcEENS_9allocatorIcEEEEEELb1EE8__rewrapB7v160006ES9_S9_, symObjAddr: 0x8558, symBinAddr: 0x10000AC28, symSize: 0x50 }
  - { offsetInCU: 0x1ECB8, offset: 0x1ECB8, size: 0x8, addend: 0x0, symName: __ZNSt3__16vectorINS_4pairImNS_12basic_stringIcNS_11char_traitsIcEENS_9allocatorIcEEEEEENS5_IS8_EEE21_ConstructTransactionC1B7v160006ERSA_m, symObjAddr: 0x85A8, symBinAddr: 0x10000AC78, symSize: 0x3C }
  - { offsetInCU: 0x1ED00, offset: 0x1ED00, size: 0x8, addend: 0x0, symName: __ZNSt3__16vectorINS_4pairImNS_12basic_stringIcNS_11char_traitsIcEENS_9allocatorIcEEEEEENS5_IS8_EEE21_ConstructTransactionD1B7v160006Ev, symObjAddr: 0x86E0, symBinAddr: 0x10000ADB0, symSize: 0x2C }
  - { offsetInCU: 0x1ED2A, offset: 0x1ED2A, size: 0x8, addend: 0x0, symName: __ZNSt3__16vectorINS_4pairImNS_12basic_stringIcNS_11char_traitsIcEENS_9allocatorIcEEEEEENS5_IS8_EEE21_ConstructTransactionC2B7v160006ERSA_m, symObjAddr: 0x870C, symBinAddr: 0x10000ADDC, symSize: 0x44 }
  - { offsetInCU: 0x1ED72, offset: 0x1ED72, size: 0x8, addend: 0x0, symName: __ZNSt3__129_AllocatorDestroyRangeReverseINS_9allocatorINS_4pairImNS_12basic_stringIcNS_11char_traitsIcEENS1_IcEEEEEEEEPS8_EC1B7v160006ERS9_RSA_SD_, symObjAddr: 0x879C, symBinAddr: 0x10000AE6C, symSize: 0x44 }
  - { offsetInCU: 0x1EDC9, offset: 0x1EDC9, size: 0x8, addend: 0x0, symName: __ZNSt3__116allocator_traitsINS_9allocatorINS_4pairImNS_12basic_stringIcNS_11char_traitsIcEENS1_IcEEEEEEEEE9constructB7v160006IS8_JRS8_EvEEvRS9_PT_DpOT0_, symObjAddr: 0x87E0, symBinAddr: 0x10000AEB0, symSize: 0x34 }
  - { offsetInCU: 0x1EE20, offset: 0x1EE20, size: 0x8, addend: 0x0, symName: __ZNSt3__128__exception_guard_exceptionsINS_29_AllocatorDestroyRangeReverseINS_9allocatorINS_4pairImNS_12basic_stringIcNS_11char_traitsIcEENS2_IcEEEEEEEEPS9_EEE10__completeB7v160006Ev, symObjAddr: 0x8814, symBinAddr: 0x10000AEE4, symSize: 0x1C }
  - { offsetInCU: 0x1EE46, offset: 0x1EE46, size: 0x8, addend: 0x0, symName: __ZNSt3__128__exception_guard_exceptionsINS_29_AllocatorDestroyRangeReverseINS_9allocatorINS_4pairImNS_12basic_stringIcNS_11char_traitsIcEENS2_IcEEEEEEEEPS9_EEED1B7v160006Ev, symObjAddr: 0x8830, symBinAddr: 0x10000AF00, symSize: 0x2C }
  - { offsetInCU: 0x1EE70, offset: 0x1EE70, size: 0x8, addend: 0x0, symName: __ZNSt3__128__exception_guard_exceptionsINS_29_AllocatorDestroyRangeReverseINS_9allocatorINS_4pairImNS_12basic_stringIcNS_11char_traitsIcEENS2_IcEEEEEEEEPS9_EEEC1B7v160006ESC_, symObjAddr: 0x885C, symBinAddr: 0x10000AF2C, symSize: 0x34 }
  - { offsetInCU: 0x1EEA9, offset: 0x1EEA9, size: 0x8, addend: 0x0, symName: __ZNSt3__128__exception_guard_exceptionsINS_29_AllocatorDestroyRangeReverseINS_9allocatorINS_4pairImNS_12basic_stringIcNS_11char_traitsIcEENS2_IcEEEEEEEEPS9_EEEC2B7v160006ESC_, symObjAddr: 0x8890, symBinAddr: 0x10000AF60, symSize: 0x30 }
  - { offsetInCU: 0x1EEE2, offset: 0x1EEE2, size: 0x8, addend: 0x0, symName: __ZNSt3__129_AllocatorDestroyRangeReverseINS_9allocatorINS_4pairImNS_12basic_stringIcNS_11char_traitsIcEENS1_IcEEEEEEEEPS8_EC2B7v160006ERS9_RSA_SD_, symObjAddr: 0x88C0, symBinAddr: 0x10000AF90, symSize: 0x38 }
  - { offsetInCU: 0x1EF39, offset: 0x1EF39, size: 0x8, addend: 0x0, symName: __ZNSt3__19allocatorINS_4pairImNS_12basic_stringIcNS_11char_traitsIcEENS0_IcEEEEEEE9constructB7v160006IS7_JRS7_EEEvPT_DpOT0_, symObjAddr: 0x88F8, symBinAddr: 0x10000AFC8, symSize: 0x30 }
  - { offsetInCU: 0x1EF8F, offset: 0x1EF8F, size: 0x8, addend: 0x0, symName: __ZNSt3__14pairImNS_12basic_stringIcNS_11char_traitsIcEENS_9allocatorIcEEEEEC1ERKS7_, symObjAddr: 0x8928, symBinAddr: 0x10000AFF8, symSize: 0x34 }
  - { offsetInCU: 0x1EFC3, offset: 0x1EFC3, size: 0x8, addend: 0x0, symName: __ZNSt3__14pairImNS_12basic_stringIcNS_11char_traitsIcEENS_9allocatorIcEEEEEC2ERKS7_, symObjAddr: 0x895C, symBinAddr: 0x10000B02C, symSize: 0x48 }
  - { offsetInCU: 0x1EFF7, offset: 0x1EFF7, size: 0x8, addend: 0x0, symName: __ZNSt3__128__exception_guard_exceptionsINS_29_AllocatorDestroyRangeReverseINS_9allocatorINS_4pairImNS_12basic_stringIcNS_11char_traitsIcEENS2_IcEEEEEEEEPS9_EEED2B7v160006Ev, symObjAddr: 0x89A4, symBinAddr: 0x10000B074, symSize: 0x48 }
  - { offsetInCU: 0x1F021, offset: 0x1F021, size: 0x8, addend: 0x0, symName: __ZNKSt3__129_AllocatorDestroyRangeReverseINS_9allocatorINS_4pairImNS_12basic_stringIcNS_11char_traitsIcEENS1_IcEEEEEEEEPS8_EclB7v160006Ev, symObjAddr: 0x89EC, symBinAddr: 0x10000B0BC, symSize: 0x68 }
  - { offsetInCU: 0x1F047, offset: 0x1F047, size: 0x8, addend: 0x0, symName: __ZNSt3__116reverse_iteratorIPNS_4pairImNS_12basic_stringIcNS_11char_traitsIcEENS_9allocatorIcEEEEEEEC1B7v160006ES9_, symObjAddr: 0x8AC4, symBinAddr: 0x10000B194, symSize: 0x34 }
  - { offsetInCU: 0x1F07F, offset: 0x1F07F, size: 0x8, addend: 0x0, symName: __ZNSt3__116reverse_iteratorIPNS_4pairImNS_12basic_stringIcNS_11char_traitsIcEENS_9allocatorIcEEEEEEEppB7v160006Ev, symObjAddr: 0x8B64, symBinAddr: 0x10000B234, symSize: 0x20 }
  - { offsetInCU: 0x1F0A5, offset: 0x1F0A5, size: 0x8, addend: 0x0, symName: __ZNKSt3__116reverse_iteratorIPNS_4pairImNS_12basic_stringIcNS_11char_traitsIcEENS_9allocatorIcEEEEEEE4baseB7v160006Ev, symObjAddr: 0x8B84, symBinAddr: 0x10000B254, symSize: 0x18 }
  - { offsetInCU: 0x1F0D0, offset: 0x1F0D0, size: 0x8, addend: 0x0, symName: __ZNSt3__119__to_address_helperINS_16reverse_iteratorIPNS_4pairImNS_12basic_stringIcNS_11char_traitsIcEENS_9allocatorIcEEEEEEEEvE6__callB7v160006ERKSB_, symObjAddr: 0x8B9C, symBinAddr: 0x10000B26C, symSize: 0x4C }
  - { offsetInCU: 0x1F0F3, offset: 0x1F0F3, size: 0x8, addend: 0x0, symName: __ZNKSt3__116reverse_iteratorIPNS_4pairImNS_12basic_stringIcNS_11char_traitsIcEENS_9allocatorIcEEEEEEEptB7v160006Ev, symObjAddr: 0x8BE8, symBinAddr: 0x10000B2B8, symSize: 0x24 }
  - { offsetInCU: 0x1F119, offset: 0x1F119, size: 0x8, addend: 0x0, symName: __ZNKSt3__116reverse_iteratorIPNS_4pairImNS_12basic_stringIcNS_11char_traitsIcEENS_9allocatorIcEEEEEEEdeB7v160006Ev, symObjAddr: 0x8C0C, symBinAddr: 0x10000B2DC, symSize: 0x28 }
  - { offsetInCU: 0x1F14D, offset: 0x1F14D, size: 0x8, addend: 0x0, symName: __ZNSt3__116reverse_iteratorIPNS_4pairImNS_12basic_stringIcNS_11char_traitsIcEENS_9allocatorIcEEEEEEEC2B7v160006ES9_, symObjAddr: 0x8C34, symBinAddr: 0x10000B304, symSize: 0x28 }
  - { offsetInCU: 0x1F185, offset: 0x1F185, size: 0x8, addend: 0x0, symName: __ZNSt3__16vectorINS_4pairImNS_12basic_stringIcNS_11char_traitsIcEENS_9allocatorIcEEEEEENS5_IS8_EEE21_ConstructTransactionD2B7v160006Ev, symObjAddr: 0x8C5C, symBinAddr: 0x10000B32C, symSize: 0x20 }
  - { offsetInCU: 0x1F1AF, offset: 0x1F1AF, size: 0x8, addend: 0x0, symName: __ZNSt3__16vectorINS_4pairImNS_12basic_stringIcNS_11char_traitsIcEENS_9allocatorIcEEEEEENS5_IS8_EEE27__invalidate_iterators_pastB7v160006EPS8_, symObjAddr: 0x8C7C, symBinAddr: 0x10000B34C, symSize: 0x14 }
  - { offsetInCU: 0x1F1E6, offset: 0x1F1E6, size: 0x8, addend: 0x0, symName: __ZNKSt3__16vectorINS_4pairImNS_12basic_stringIcNS_11char_traitsIcEENS_9allocatorIcEEEEEENS5_IS8_EEE17__annotate_shrinkB7v160006Em, symObjAddr: 0x8C90, symBinAddr: 0x10000B360, symSize: 0xB4 }
  - { offsetInCU: 0x1F21B, offset: 0x1F21B, size: 0x8, addend: 0x0, symName: __ZNSt3__16vectorINS_4pairImNS_12basic_stringIcNS_11char_traitsIcEENS_9allocatorIcEEEEEENS5_IS8_EEE5clearB7v160006Ev, symObjAddr: 0x8D44, symBinAddr: 0x10000B414, symSize: 0x68 }
  - { offsetInCU: 0x1F250, offset: 0x1F250, size: 0x8, addend: 0x0, symName: __ZNSt3__16vectorINS_4pairImNS_12basic_stringIcNS_11char_traitsIcEENS_9allocatorIcEEEEEENS5_IS8_EEE9__end_capB7v160006Ev, symObjAddr: 0x8DAC, symBinAddr: 0x10000B47C, symSize: 0x28 }
  - { offsetInCU: 0x1F276, offset: 0x1F276, size: 0x8, addend: 0x0, symName: __ZNSt3__117__compressed_pairIPNS_4pairImNS_12basic_stringIcNS_11char_traitsIcEENS_9allocatorIcEEEEEENS5_IS8_EEE5firstB7v160006Ev, symObjAddr: 0x8DD4, symBinAddr: 0x10000B4A4, symSize: 0x24 }
  - { offsetInCU: 0x1F29C, offset: 0x1F29C, size: 0x8, addend: 0x0, symName: __ZNSt3__122__compressed_pair_elemIPNS_4pairImNS_12basic_stringIcNS_11char_traitsIcEENS_9allocatorIcEEEEEELi0ELb0EE5__getB7v160006Ev, symObjAddr: 0x8DF8, symBinAddr: 0x10000B4C8, symSize: 0x14 }
  - { offsetInCU: 0x1F2C2, offset: 0x1F2C2, size: 0x8, addend: 0x0, symName: __ZNKSt3__16vectorINS_4pairImNS_12basic_stringIcNS_11char_traitsIcEENS_9allocatorIcEEEEEENS5_IS8_EEE8max_sizeEv, symObjAddr: 0x8E0C, symBinAddr: 0x10000B4DC, symSize: 0x74 }
  - { offsetInCU: 0x1F2EA, offset: 0x1F2EA, size: 0x8, addend: 0x0, symName: __ZNKSt3__16vectorINS_4pairImNS_12basic_stringIcNS_11char_traitsIcEENS_9allocatorIcEEEEEENS5_IS8_EEE20__throw_length_errorB7v160006Ev, symObjAddr: 0x8E80, symBinAddr: 0x10000B550, symSize: 0x1C }
  - { offsetInCU: 0x1F310, offset: 0x1F310, size: 0x8, addend: 0x0, symName: __ZNKSt3__16vectorINS_4pairImNS_12basic_stringIcNS_11char_traitsIcEENS_9allocatorIcEEEEEENS5_IS8_EEE14__annotate_newB7v160006Em, symObjAddr: 0x8EDC, symBinAddr: 0x10000B5AC, symSize: 0xAC }
  - { offsetInCU: 0x1F34F, offset: 0x1F34F, size: 0x8, addend: 0x0, symName: __ZNSt3__116allocator_traitsINS_9allocatorINS_4pairImNS_12basic_stringIcNS_11char_traitsIcEENS1_IcEEEEEEEEE8max_sizeB7v160006IS9_vEEmRKS9_, symObjAddr: 0x8FB4, symBinAddr: 0x10000B684, symSize: 0x24 }
  - { offsetInCU: 0x1F37D, offset: 0x1F37D, size: 0x8, addend: 0x0, symName: __ZNKSt3__16vectorINS_4pairImNS_12basic_stringIcNS_11char_traitsIcEENS_9allocatorIcEEEEEENS5_IS8_EEE7__allocB7v160006Ev, symObjAddr: 0x8FD8, symBinAddr: 0x10000B6A8, symSize: 0x28 }
  - { offsetInCU: 0x1F3A3, offset: 0x1F3A3, size: 0x8, addend: 0x0, symName: __ZNSt3__114numeric_limitsIlE3maxB7v160006Ev, symObjAddr: 0x9000, symBinAddr: 0x10000B6D0, symSize: 0x14 }
  - { offsetInCU: 0x1F3C1, offset: 0x1F3C1, size: 0x8, addend: 0x0, symName: __ZNKSt3__16__lessImmEclB7v160006ERKmS3_, symObjAddr: 0x9068, symBinAddr: 0x10000B738, symSize: 0x34 }
  - { offsetInCU: 0x1F403, offset: 0x1F403, size: 0x8, addend: 0x0, symName: __ZNKSt3__19allocatorINS_4pairImNS_12basic_stringIcNS_11char_traitsIcEENS0_IcEEEEEEE8max_sizeB7v160006Ev, symObjAddr: 0x909C, symBinAddr: 0x10000B76C, symSize: 0x14 }
  - { offsetInCU: 0x1F429, offset: 0x1F429, size: 0x8, addend: 0x0, symName: __ZNKSt3__117__compressed_pairIPNS_4pairImNS_12basic_stringIcNS_11char_traitsIcEENS_9allocatorIcEEEEEENS5_IS8_EEE6secondB7v160006Ev, symObjAddr: 0x90B0, symBinAddr: 0x10000B780, symSize: 0x24 }
  - { offsetInCU: 0x1F44F, offset: 0x1F44F, size: 0x8, addend: 0x0, symName: __ZNKSt3__122__compressed_pair_elemINS_9allocatorINS_4pairImNS_12basic_stringIcNS_11char_traitsIcEENS1_IcEEEEEEEELi1ELb1EE5__getB7v160006Ev, symObjAddr: 0x90D4, symBinAddr: 0x10000B7A4, symSize: 0x14 }
  - { offsetInCU: 0x1F475, offset: 0x1F475, size: 0x8, addend: 0x0, symName: __ZNSt3__123__libcpp_numeric_limitsIlLb1EE3maxB7v160006Ev, symObjAddr: 0x90E8, symBinAddr: 0x10000B7B8, symSize: 0x8 }
  - { offsetInCU: 0x1F489, offset: 0x1F489, size: 0x8, addend: 0x0, symName: __ZNSt3__19allocatorINS_4pairImNS_12basic_stringIcNS_11char_traitsIcEENS0_IcEEEEEEE8allocateB7v160006Em, symObjAddr: 0x90F0, symBinAddr: 0x10000B7C0, symSize: 0x84 }
  - { offsetInCU: 0x1F4BD, offset: 0x1F4BD, size: 0x8, addend: 0x0, symName: __ZNSt3__16__treeINS_12__value_typeINS_12basic_stringIcNS_11char_traitsIcEENS_9allocatorIcEEEElEENS_19__map_value_compareIS7_S8_NS_4lessIS7_EELb1EEENS5_IS8_EEE5clearEv, symObjAddr: 0x91F4, symBinAddr: 0x10000B8C4, symSize: 0x74 }
  - { offsetInCU: 0x1F4E5, offset: 0x1F4E5, size: 0x8, addend: 0x0, symName: __ZNKSt3__16__treeINS_12__value_typeINS_12basic_stringIcNS_11char_traitsIcEENS_9allocatorIcEEEElEENS_19__map_value_compareIS7_S8_NS_4lessIS7_EELb1EEENS5_IS8_EEE10value_compB7v160006Ev, symObjAddr: 0x9268, symBinAddr: 0x10000B938, symSize: 0x28 }
  - { offsetInCU: 0x1F50B, offset: 0x1F50B, size: 0x8, addend: 0x0, symName: __ZNSt3__16__treeINS_12__value_typeINS_12basic_stringIcNS_11char_traitsIcEENS_9allocatorIcEEEElEENS_19__map_value_compareIS7_S8_NS_4lessIS7_EELb1EEENS5_IS8_EEE10value_compB7v160006Ev, symObjAddr: 0x9290, symBinAddr: 0x10000B960, symSize: 0x28 }
  - { offsetInCU: 0x1F531, offset: 0x1F531, size: 0x8, addend: 0x0, symName: __ZNSt3__16__treeINS_12__value_typeINS_12basic_stringIcNS_11char_traitsIcEENS_9allocatorIcEEEElEENS_19__map_value_compareIS7_S8_NS_4lessIS7_EELb1EEENS5_IS8_EEE19__copy_assign_allocB7v160006ERKSE_, symObjAddr: 0x92B8, symBinAddr: 0x10000B988, symSize: 0x2C }
  - { offsetInCU: 0x1F566, offset: 0x1F566, size: 0x8, addend: 0x0, symName: __ZNSt3__13mapINS_12basic_stringIcNS_11char_traitsIcEENS_9allocatorIcEEEElNS_4lessIS6_EENS4_INS_4pairIKS6_lEEEEE6insertB7v160006INS_20__map_const_iteratorINS_21__tree_const_iteratorINS_12__value_typeIS6_lEEPNS_11__tree_nodeISI_PvEElEEEEEEvT_SP_, symObjAddr: 0x92E4, symBinAddr: 0x10000B9B4, symSize: 0x8C }
  - { offsetInCU: 0x1F5D0, offset: 0x1F5D0, size: 0x8, addend: 0x0, symName: __ZNKSt3__13mapINS_12basic_stringIcNS_11char_traitsIcEENS_9allocatorIcEEEElNS_4lessIS6_EENS4_INS_4pairIKS6_lEEEEE5beginB7v160006Ev, symObjAddr: 0x9370, symBinAddr: 0x10000BA40, symSize: 0x38 }
  - { offsetInCU: 0x1F5F6, offset: 0x1F5F6, size: 0x8, addend: 0x0, symName: __ZNKSt3__13mapINS_12basic_stringIcNS_11char_traitsIcEENS_9allocatorIcEEEElNS_4lessIS6_EENS4_INS_4pairIKS6_lEEEEE3endB7v160006Ev, symObjAddr: 0x93A8, symBinAddr: 0x10000BA78, symSize: 0x38 }
  - { offsetInCU: 0x1F61C, offset: 0x1F61C, size: 0x8, addend: 0x0, symName: __ZNSt3__16__treeINS_12__value_typeINS_12basic_stringIcNS_11char_traitsIcEENS_9allocatorIcEEEElEENS_19__map_value_compareIS7_S8_NS_4lessIS7_EELb1EEENS5_IS8_EEE4sizeB7v160006Ev, symObjAddr: 0x93E0, symBinAddr: 0x10000BAB0, symSize: 0x28 }
  - { offsetInCU: 0x1F642, offset: 0x1F642, size: 0x8, addend: 0x0, symName: __ZNSt3__117__compressed_pairImNS_19__map_value_compareINS_12basic_stringIcNS_11char_traitsIcEENS_9allocatorIcEEEENS_12__value_typeIS7_lEENS_4lessIS7_EELb1EEEE5firstB7v160006Ev, symObjAddr: 0x9408, symBinAddr: 0x10000BAD8, symSize: 0x24 }
  - { offsetInCU: 0x1F668, offset: 0x1F668, size: 0x8, addend: 0x0, symName: __ZNKSt3__117__compressed_pairImNS_19__map_value_compareINS_12basic_stringIcNS_11char_traitsIcEENS_9allocatorIcEEEENS_12__value_typeIS7_lEENS_4lessIS7_EELb1EEEE6secondB7v160006Ev, symObjAddr: 0x942C, symBinAddr: 0x10000BAFC, symSize: 0x24 }
  - { offsetInCU: 0x1F68E, offset: 0x1F68E, size: 0x8, addend: 0x0, symName: __ZNKSt3__122__compressed_pair_elemINS_19__map_value_compareINS_12basic_stringIcNS_11char_traitsIcEENS_9allocatorIcEEEENS_12__value_typeIS7_lEENS_4lessIS7_EELb1EEELi1ELb1EE5__getB7v160006Ev, symObjAddr: 0x9450, symBinAddr: 0x10000BB20, symSize: 0x14 }
  - { offsetInCU: 0x1F6B4, offset: 0x1F6B4, size: 0x8, addend: 0x0, symName: __ZNSt3__117__compressed_pairImNS_19__map_value_compareINS_12basic_stringIcNS_11char_traitsIcEENS_9allocatorIcEEEENS_12__value_typeIS7_lEENS_4lessIS7_EELb1EEEE6secondB7v160006Ev, symObjAddr: 0x9464, symBinAddr: 0x10000BB34, symSize: 0x24 }
  - { offsetInCU: 0x1F6DA, offset: 0x1F6DA, size: 0x8, addend: 0x0, symName: __ZNSt3__122__compressed_pair_elemINS_19__map_value_compareINS_12basic_stringIcNS_11char_traitsIcEENS_9allocatorIcEEEENS_12__value_typeIS7_lEENS_4lessIS7_EELb1EEELi1ELb1EE5__getB7v160006Ev, symObjAddr: 0x9488, symBinAddr: 0x10000BB58, symSize: 0x14 }
  - { offsetInCU: 0x1F700, offset: 0x1F700, size: 0x8, addend: 0x0, symName: __ZNSt3__16__treeINS_12__value_typeINS_12basic_stringIcNS_11char_traitsIcEENS_9allocatorIcEEEElEENS_19__map_value_compareIS7_S8_NS_4lessIS7_EELb1EEENS5_IS8_EEE19__copy_assign_allocB7v160006ERKSE_NS_17integral_constantIbLb0EEE, symObjAddr: 0x949C, symBinAddr: 0x10000BB6C, symSize: 0x14 }
  - { offsetInCU: 0x1F73E, offset: 0x1F73E, size: 0x8, addend: 0x0, symName: __ZNKSt3__13mapINS_12basic_stringIcNS_11char_traitsIcEENS_9allocatorIcEEEElNS_4lessIS6_EENS4_INS_4pairIKS6_lEEEEE4cendB7v160006Ev, symObjAddr: 0x94B0, symBinAddr: 0x10000BB80, symSize: 0x2C }
  - { offsetInCU: 0x1F764, offset: 0x1F764, size: 0x8, addend: 0x0, symName: __ZNSt3__13mapINS_12basic_stringIcNS_11char_traitsIcEENS_9allocatorIcEEEElNS_4lessIS6_EENS4_INS_4pairIKS6_lEEEEE6insertB7v160006ENS_20__map_const_iteratorINS_21__tree_const_iteratorINS_12__value_typeIS6_lEEPNS_11__tree_nodeISH_PvEElEEEERKSB_, symObjAddr: 0x950C, symBinAddr: 0x10000BBDC, symSize: 0x50 }
  - { offsetInCU: 0x1F7A8, offset: 0x1F7A8, size: 0x8, addend: 0x0, symName: __ZNSt3__120__map_const_iteratorINS_21__tree_const_iteratorINS_12__value_typeINS_12basic_stringIcNS_11char_traitsIcEENS_9allocatorIcEEEElEEPNS_11__tree_nodeIS9_PvEElEEEC1B7v160006ESE_, symObjAddr: 0x955C, symBinAddr: 0x10000BC2C, symSize: 0x34 }
  - { offsetInCU: 0x1F7E1, offset: 0x1F7E1, size: 0x8, addend: 0x0, symName: __ZNKSt3__120__map_const_iteratorINS_21__tree_const_iteratorINS_12__value_typeINS_12basic_stringIcNS_11char_traitsIcEENS_9allocatorIcEEEElEEPNS_11__tree_nodeIS9_PvEElEEEdeB7v160006Ev, symObjAddr: 0x9590, symBinAddr: 0x10000BC60, symSize: 0x28 }
  - { offsetInCU: 0x1F807, offset: 0x1F807, size: 0x8, addend: 0x0, symName: __ZNSt3__120__map_const_iteratorINS_21__tree_const_iteratorINS_12__value_typeINS_12basic_stringIcNS_11char_traitsIcEENS_9allocatorIcEEEElEEPNS_11__tree_nodeIS9_PvEElEEEppB7v160006Ev, symObjAddr: 0x95B8, symBinAddr: 0x10000BC88, symSize: 0x2C }
  - { offsetInCU: 0x1F82D, offset: 0x1F82D, size: 0x8, addend: 0x0, symName: __ZNSt3__16__treeINS_12__value_typeINS_12basic_stringIcNS_11char_traitsIcEENS_9allocatorIcEEEElEENS_19__map_value_compareIS7_S8_NS_4lessIS7_EELb1EEENS5_IS8_EEE15__insert_uniqueB7v160006ENS_21__tree_const_iteratorIS8_PNS_11__tree_nodeIS8_PvEElEERKNS_4pairIKS7_lEE, symObjAddr: 0x9648, symBinAddr: 0x10000BD18, symSize: 0x64 }
  - { offsetInCU: 0x1F871, offset: 0x1F871, size: 0x8, addend: 0x0, symName: __ZNSt3__114__map_iteratorINS_15__tree_iteratorINS_12__value_typeINS_12basic_stringIcNS_11char_traitsIcEENS_9allocatorIcEEEElEEPNS_11__tree_nodeIS9_PvEElEEEC1B7v160006ESE_, symObjAddr: 0x96AC, symBinAddr: 0x10000BD7C, symSize: 0x34 }
  - { offsetInCU: 0x1F8AA, offset: 0x1F8AA, size: 0x8, addend: 0x0, symName: __ZNSt3__16__treeINS_12__value_typeINS_12basic_stringIcNS_11char_traitsIcEENS_9allocatorIcEEEElEENS_19__map_value_compareIS7_S8_NS_4lessIS7_EELb1EEENS5_IS8_EEE30__emplace_hint_unique_key_argsIS7_JRKNS_4pairIKS7_lEEEEENSG_INS_15__tree_iteratorIS8_PNS_11__tree_nodeIS8_PvEElEEbEENS_21__tree_const_iteratorIS8_SP_lEERKT_DpOT0_, symObjAddr: 0x96E0, symBinAddr: 0x10000BDB0, symSize: 0x104 }
  - { offsetInCU: 0x1F976, offset: 0x1F976, size: 0x8, addend: 0x0, symName: __ZNSt3__122__tree_key_value_typesINS_12__value_typeINS_12basic_stringIcNS_11char_traitsIcEENS_9allocatorIcEEEElEEE9__get_keyB7v160006IKNS_4pairIKS7_lEEEENS_9enable_ifIXsr17__is_same_uncvrefIT_SD_EE5valueERSC_E4typeERSG_, symObjAddr: 0x97E4, symBinAddr: 0x10000BEB4, symSize: 0x14 }
  - { offsetInCU: 0x1F9A3, offset: 0x1F9A3, size: 0x8, addend: 0x0, symName: __ZNSt3__16__treeINS_12__value_typeINS_12basic_stringIcNS_11char_traitsIcEENS_9allocatorIcEEEElEENS_19__map_value_compareIS7_S8_NS_4lessIS7_EELb1EEENS5_IS8_EEE12__find_equalIS7_EERPNS_16__tree_node_baseIPvEENS_21__tree_const_iteratorIS8_PNS_11__tree_nodeIS8_SH_EElEERPNS_15__tree_end_nodeISJ_EESK_RKT_, symObjAddr: 0x97F8, symBinAddr: 0x10000BEC8, symSize: 0x304 }
  - { offsetInCU: 0x1FA4C, offset: 0x1FA4C, size: 0x8, addend: 0x0, symName: __ZNSt3__16__treeINS_12__value_typeINS_12basic_stringIcNS_11char_traitsIcEENS_9allocatorIcEEEElEENS_19__map_value_compareIS7_S8_NS_4lessIS7_EELb1EEENS5_IS8_EEE16__construct_nodeIJRKNS_4pairIKS7_lEEEEENS_10unique_ptrINS_11__tree_nodeIS8_PvEENS_22__tree_node_destructorINS5_ISO_EEEEEEDpOT_, symObjAddr: 0x9AFC, symBinAddr: 0x10000C1CC, symSize: 0x118 }
  - { offsetInCU: 0x1FAAD, offset: 0x1FAAD, size: 0x8, addend: 0x0, symName: __ZNSt3__16__treeINS_12__value_typeINS_12basic_stringIcNS_11char_traitsIcEENS_9allocatorIcEEEElEENS_19__map_value_compareIS7_S8_NS_4lessIS7_EELb1EEENS5_IS8_EEE16__insert_node_atEPNS_15__tree_end_nodeIPNS_16__tree_node_baseIPvEEEERSJ_SJ_, symObjAddr: 0x9C14, symBinAddr: 0x10000C2E4, symSize: 0xCC }
  - { offsetInCU: 0x1FB02, offset: 0x1FB02, size: 0x8, addend: 0x0, symName: __ZNKSt3__110unique_ptrINS_11__tree_nodeINS_12__value_typeINS_12basic_stringIcNS_11char_traitsIcEENS_9allocatorIcEEEElEEPvEENS_22__tree_node_destructorINS6_ISB_EEEEE3getB7v160006Ev, symObjAddr: 0x9CE0, symBinAddr: 0x10000C3B0, symSize: 0x28 }
  - { offsetInCU: 0x1FB28, offset: 0x1FB28, size: 0x8, addend: 0x0, symName: __ZNSt3__110unique_ptrINS_11__tree_nodeINS_12__value_typeINS_12basic_stringIcNS_11char_traitsIcEENS_9allocatorIcEEEElEEPvEENS_22__tree_node_destructorINS6_ISB_EEEEE7releaseB7v160006Ev, symObjAddr: 0x9D08, symBinAddr: 0x10000C3D8, symSize: 0x44 }
  - { offsetInCU: 0x1FB5D, offset: 0x1FB5D, size: 0x8, addend: 0x0, symName: __ZNSt3__110unique_ptrINS_11__tree_nodeINS_12__value_typeINS_12basic_stringIcNS_11char_traitsIcEENS_9allocatorIcEEEElEEPvEENS_22__tree_node_destructorINS6_ISB_EEEEED1B7v160006Ev, symObjAddr: 0x9D4C, symBinAddr: 0x10000C41C, symSize: 0x2C }
  - { offsetInCU: 0x1FB87, offset: 0x1FB87, size: 0x8, addend: 0x0, symName: __ZNSt3__115__tree_iteratorINS_12__value_typeINS_12basic_stringIcNS_11char_traitsIcEENS_9allocatorIcEEEElEEPNS_11__tree_nodeIS8_PvEElEC1B7v160006ESC_, symObjAddr: 0x9D78, symBinAddr: 0x10000C448, symSize: 0x34 }
  - { offsetInCU: 0x1FBC0, offset: 0x1FBC0, size: 0x8, addend: 0x0, symName: __ZNSt3__14pairINS_15__tree_iteratorINS_12__value_typeINS_12basic_stringIcNS_11char_traitsIcEENS_9allocatorIcEEEElEEPNS_11__tree_nodeIS9_PvEElEEbEC1B7v160006ERKSE_RKb, symObjAddr: 0x9DAC, symBinAddr: 0x10000C47C, symSize: 0x3C }
  - { offsetInCU: 0x1FC06, offset: 0x1FC06, size: 0x8, addend: 0x0, symName: __ZNSt3__16__treeINS_12__value_typeINS_12basic_stringIcNS_11char_traitsIcEENS_9allocatorIcEEEElEENS_19__map_value_compareIS7_S8_NS_4lessIS7_EELb1EEENS5_IS8_EEE3endB7v160006Ev, symObjAddr: 0x9DE8, symBinAddr: 0x10000C4B8, symSize: 0x34 }
  - { offsetInCU: 0x1FC2C, offset: 0x1FC2C, size: 0x8, addend: 0x0, symName: __ZNSt3__121__tree_const_iteratorINS_12__value_typeINS_12basic_stringIcNS_11char_traitsIcEENS_9allocatorIcEEEElEEPNS_11__tree_nodeIS8_PvEElEC1B7v160006ENS_15__tree_iteratorIS8_SC_lEE, symObjAddr: 0x9E1C, symBinAddr: 0x10000C4EC, symSize: 0x34 }
  - { offsetInCU: 0x1FC65, offset: 0x1FC65, size: 0x8, addend: 0x0, symName: __ZNKSt3__119__map_value_compareINS_12basic_stringIcNS_11char_traitsIcEENS_9allocatorIcEEEENS_12__value_typeIS6_lEENS_4lessIS6_EELb1EEclB7v160006ERKS6_RKS8_, symObjAddr: 0x9E50, symBinAddr: 0x10000C520, symSize: 0x50 }
  - { offsetInCU: 0x1FCA9, offset: 0x1FCA9, size: 0x8, addend: 0x0, symName: __ZNKSt3__121__tree_const_iteratorINS_12__value_typeINS_12basic_stringIcNS_11char_traitsIcEENS_9allocatorIcEEEElEEPNS_11__tree_nodeIS8_PvEElEdeB7v160006Ev, symObjAddr: 0x9EA0, symBinAddr: 0x10000C570, symSize: 0x28 }
  - { offsetInCU: 0x1FCCF, offset: 0x1FCCF, size: 0x8, addend: 0x0, symName: __ZNSt3__16__treeINS_12__value_typeINS_12basic_stringIcNS_11char_traitsIcEENS_9allocatorIcEEEElEENS_19__map_value_compareIS7_S8_NS_4lessIS7_EELb1EEENS5_IS8_EEE5beginB7v160006Ev, symObjAddr: 0x9EC8, symBinAddr: 0x10000C598, symSize: 0x34 }
  - { offsetInCU: 0x1FCF5, offset: 0x1FCF5, size: 0x8, addend: 0x0, symName: __ZNKSt3__119__map_value_compareINS_12basic_stringIcNS_11char_traitsIcEENS_9allocatorIcEEEENS_12__value_typeIS6_lEENS_4lessIS6_EELb1EEclB7v160006ERKS8_RKS6_, symObjAddr: 0x9EFC, symBinAddr: 0x10000C5CC, symSize: 0x48 }
  - { offsetInCU: 0x1FD39, offset: 0x1FD39, size: 0x8, addend: 0x0, symName: __ZNSt3__121__tree_const_iteratorINS_12__value_typeINS_12basic_stringIcNS_11char_traitsIcEENS_9allocatorIcEEEElEEPNS_11__tree_nodeIS8_PvEElEmmB7v160006Ev, symObjAddr: 0x9F44, symBinAddr: 0x10000C614, symSize: 0x38 }
  - { offsetInCU: 0x1FD5F, offset: 0x1FD5F, size: 0x8, addend: 0x0, symName: __ZNSt3__16__treeINS_12__value_typeINS_12basic_stringIcNS_11char_traitsIcEENS_9allocatorIcEEEElEENS_19__map_value_compareIS7_S8_NS_4lessIS7_EELb1EEENS5_IS8_EEE12__find_equalIS7_EERPNS_16__tree_node_baseIPvEERPNS_15__tree_end_nodeISJ_EERKT_, symObjAddr: 0x9F7C, symBinAddr: 0x10000C64C, symSize: 0x184 }
  - { offsetInCU: 0x1FDCC, offset: 0x1FDCC, size: 0x8, addend: 0x0, symName: __ZNKSt3__121__tree_const_iteratorINS_12__value_typeINS_12basic_stringIcNS_11char_traitsIcEENS_9allocatorIcEEEElEEPNS_11__tree_nodeIS8_PvEElE8__get_npB7v160006Ev, symObjAddr: 0xA150, symBinAddr: 0x10000C820, symSize: 0x18 }
  - { offsetInCU: 0x1FDF2, offset: 0x1FDF2, size: 0x8, addend: 0x0, symName: __ZNSt3__115__tree_iteratorINS_12__value_typeINS_12basic_stringIcNS_11char_traitsIcEENS_9allocatorIcEEEElEEPNS_11__tree_nodeIS8_PvEElEC1B7v160006EPNS_15__tree_end_nodeIPNS_16__tree_node_baseISA_EEEE, symObjAddr: 0xA168, symBinAddr: 0x10000C838, symSize: 0x34 }
  - { offsetInCU: 0x1FE2B, offset: 0x1FE2B, size: 0x8, addend: 0x0, symName: __ZNSt3__115__tree_iteratorINS_12__value_typeINS_12basic_stringIcNS_11char_traitsIcEENS_9allocatorIcEEEElEEPNS_11__tree_nodeIS8_PvEElEC2B7v160006EPNS_15__tree_end_nodeIPNS_16__tree_node_baseISA_EEEE, symObjAddr: 0xA19C, symBinAddr: 0x10000C86C, symSize: 0x20 }
  - { offsetInCU: 0x1FE64, offset: 0x1FE64, size: 0x8, addend: 0x0, symName: __ZNSt3__121__tree_const_iteratorINS_12__value_typeINS_12basic_stringIcNS_11char_traitsIcEENS_9allocatorIcEEEElEEPNS_11__tree_nodeIS8_PvEElEC2B7v160006ENS_15__tree_iteratorIS8_SC_lEE, symObjAddr: 0xA1BC, symBinAddr: 0x10000C88C, symSize: 0x20 }
  - { offsetInCU: 0x1FE9D, offset: 0x1FE9D, size: 0x8, addend: 0x0, symName: __ZNKSt3__14lessINS_12basic_stringIcNS_11char_traitsIcEENS_9allocatorIcEEEEEclB7v160006ERKS6_S9_, symObjAddr: 0xA1DC, symBinAddr: 0x10000C8AC, symSize: 0x34 }
  - { offsetInCU: 0x1FEE1, offset: 0x1FEE1, size: 0x8, addend: 0x0, symName: __ZNKSt3__112__value_typeINS_12basic_stringIcNS_11char_traitsIcEENS_9allocatorIcEEEElE11__get_valueB7v160006Ev, symObjAddr: 0xA210, symBinAddr: 0x10000C8E0, symSize: 0x14 }
  - { offsetInCU: 0x1FF07, offset: 0x1FF07, size: 0x8, addend: 0x0, symName: __ZNKSt3__112basic_stringIcNS_11char_traitsIcEENS_9allocatorIcEEE7compareB7v160006ERKS5_, symObjAddr: 0xA25C, symBinAddr: 0x10000C92C, symSize: 0x4C }
  - { offsetInCU: 0x1FF3E, offset: 0x1FF3E, size: 0x8, addend: 0x0, symName: __ZNKSt3__112basic_stringIcNS_11char_traitsIcEENS_9allocatorIcEEE7compareINS_17basic_string_viewIcS2_EEEENS_9enable_ifIXsr33__can_be_converted_to_string_viewIcS2_T_EE5valueEiE4typeERKSA_, symObjAddr: 0xA2A8, symBinAddr: 0x10000C978, symSize: 0x140 }
  - { offsetInCU: 0x1FFBB, offset: 0x1FFBB, size: 0x8, addend: 0x0, symName: __ZNKSt3__112basic_stringIcNS_11char_traitsIcEENS_9allocatorIcEEEcvNS_17basic_string_viewIcS2_EEB7v160006Ev, symObjAddr: 0xA3E8, symBinAddr: 0x10000CAB8, symSize: 0x50 }
  - { offsetInCU: 0x1FFE1, offset: 0x1FFE1, size: 0x8, addend: 0x0, symName: __ZNKSt3__117basic_string_viewIcNS_11char_traitsIcEEE4sizeB7v160006Ev, symObjAddr: 0xA438, symBinAddr: 0x10000CB08, symSize: 0x18 }
  - { offsetInCU: 0x20007, offset: 0x20007, size: 0x8, addend: 0x0, symName: __ZNSt3__111char_traitsIcE7compareEPKcS3_m, symObjAddr: 0xA450, symBinAddr: 0x10000CB20, symSize: 0x80 }
  - { offsetInCU: 0x20046, offset: 0x20046, size: 0x8, addend: 0x0, symName: __ZNKSt3__117basic_string_viewIcNS_11char_traitsIcEEE4dataB7v160006Ev, symObjAddr: 0xA4D0, symBinAddr: 0x10000CBA0, symSize: 0x18 }
  - { offsetInCU: 0x2006C, offset: 0x2006C, size: 0x8, addend: 0x0, symName: __ZNSt3__117basic_string_viewIcNS_11char_traitsIcEEEC1B7v160006EPKcm, symObjAddr: 0xA51C, symBinAddr: 0x10000CBEC, symSize: 0x3C }
  - { offsetInCU: 0x200B4, offset: 0x200B4, size: 0x8, addend: 0x0, symName: __ZNSt3__117basic_string_viewIcNS_11char_traitsIcEEEC2B7v160006EPKcm, symObjAddr: 0xA558, symBinAddr: 0x10000CC28, symSize: 0x2C }
  - { offsetInCU: 0x200FC, offset: 0x200FC, size: 0x8, addend: 0x0, symName: __ZNKSt3__16__treeINS_12__value_typeINS_12basic_stringIcNS_11char_traitsIcEENS_9allocatorIcEEEElEENS_19__map_value_compareIS7_S8_NS_4lessIS7_EELb1EEENS5_IS8_EEE10__root_ptrEv, symObjAddr: 0xA64C, symBinAddr: 0x10000CD1C, symSize: 0x24 }
  - { offsetInCU: 0x20122, offset: 0x20122, size: 0x8, addend: 0x0, symName: __ZNSt3__121__tree_const_iteratorINS_12__value_typeINS_12basic_stringIcNS_11char_traitsIcEENS_9allocatorIcEEEElEEPNS_11__tree_nodeIS8_PvEElEppB7v160006Ev, symObjAddr: 0xA778, symBinAddr: 0x10000CE48, symSize: 0x38 }
  - { offsetInCU: 0x20148, offset: 0x20148, size: 0x8, addend: 0x0, symName: __ZNSt3__116allocator_traitsINS_9allocatorINS_11__tree_nodeINS_12__value_typeINS_12basic_stringIcNS_11char_traitsIcEENS1_IcEEEElEEPvEEEEE8allocateB7v160006ERSC_m, symObjAddr: 0xA870, symBinAddr: 0x10000CF40, symSize: 0x2C }
  - { offsetInCU: 0x2017B, offset: 0x2017B, size: 0x8, addend: 0x0, symName: __ZNSt3__122__tree_node_destructorINS_9allocatorINS_11__tree_nodeINS_12__value_typeINS_12basic_stringIcNS_11char_traitsIcEENS1_IcEEEElEEPvEEEEEC1B7v160006ERSC_b, symObjAddr: 0xA89C, symBinAddr: 0x10000CF6C, symSize: 0x48 }
  - { offsetInCU: 0x201C8, offset: 0x201C8, size: 0x8, addend: 0x0, symName: __ZNSt3__110unique_ptrINS_11__tree_nodeINS_12__value_typeINS_12basic_stringIcNS_11char_traitsIcEENS_9allocatorIcEEEElEEPvEENS_22__tree_node_destructorINS6_ISB_EEEEEC1B7v160006ILb1EvEEPSB_NS_16__dependent_typeINS_27__unique_ptr_deleter_sfinaeISE_EEXT_EE20__good_rval_ref_typeE, symObjAddr: 0xA8E4, symBinAddr: 0x10000CFB4, symSize: 0x3C }
  - { offsetInCU: 0x20219, offset: 0x20219, size: 0x8, addend: 0x0, symName: __ZNSt3__116allocator_traitsINS_9allocatorINS_11__tree_nodeINS_12__value_typeINS_12basic_stringIcNS_11char_traitsIcEENS1_IcEEEElEEPvEEEEE9constructB7v160006INS_4pairIKS8_lEEJRKSH_EvEEvRSC_PT_DpOT0_, symObjAddr: 0xA920, symBinAddr: 0x10000CFF0, symSize: 0x34 }
  - { offsetInCU: 0x20270, offset: 0x20270, size: 0x8, addend: 0x0, symName: __ZNKSt3__110unique_ptrINS_11__tree_nodeINS_12__value_typeINS_12basic_stringIcNS_11char_traitsIcEENS_9allocatorIcEEEElEEPvEENS_22__tree_node_destructorINS6_ISB_EEEEEptB7v160006Ev, symObjAddr: 0xA954, symBinAddr: 0x10000D024, symSize: 0x28 }
  - { offsetInCU: 0x20296, offset: 0x20296, size: 0x8, addend: 0x0, symName: __ZNSt3__110unique_ptrINS_11__tree_nodeINS_12__value_typeINS_12basic_stringIcNS_11char_traitsIcEENS_9allocatorIcEEEElEEPvEENS_22__tree_node_destructorINS6_ISB_EEEEE11get_deleterB7v160006Ev, symObjAddr: 0xA97C, symBinAddr: 0x10000D04C, symSize: 0x24 }
  - { offsetInCU: 0x202BC, offset: 0x202BC, size: 0x8, addend: 0x0, symName: __ZNSt3__19allocatorINS_11__tree_nodeINS_12__value_typeINS_12basic_stringIcNS_11char_traitsIcEENS0_IcEEEElEEPvEEE8allocateB7v160006Em, symObjAddr: 0xA9A0, symBinAddr: 0x10000D070, symSize: 0x84 }
  - { offsetInCU: 0x202FA, offset: 0x202FA, size: 0x8, addend: 0x0, symName: __ZNSt3__116allocator_traitsINS_9allocatorINS_11__tree_nodeINS_12__value_typeINS_12basic_stringIcNS_11char_traitsIcEENS1_IcEEEElEEPvEEEEE8max_sizeB7v160006ISC_vEEmRKSC_, symObjAddr: 0xAA24, symBinAddr: 0x10000D0F4, symSize: 0x24 }
  - { offsetInCU: 0x20328, offset: 0x20328, size: 0x8, addend: 0x0, symName: __ZNKSt3__19allocatorINS_11__tree_nodeINS_12__value_typeINS_12basic_stringIcNS_11char_traitsIcEENS0_IcEEEElEEPvEEE8max_sizeB7v160006Ev, symObjAddr: 0xAA48, symBinAddr: 0x10000D118, symSize: 0x14 }
  - { offsetInCU: 0x2034E, offset: 0x2034E, size: 0x8, addend: 0x0, symName: __ZNSt3__122__tree_node_destructorINS_9allocatorINS_11__tree_nodeINS_12__value_typeINS_12basic_stringIcNS_11char_traitsIcEENS1_IcEEEElEEPvEEEEEC2B7v160006ERSC_b, symObjAddr: 0xAA5C, symBinAddr: 0x10000D12C, symSize: 0x38 }
  - { offsetInCU: 0x20396, offset: 0x20396, size: 0x8, addend: 0x0, symName: __ZNSt3__110unique_ptrINS_11__tree_nodeINS_12__value_typeINS_12basic_stringIcNS_11char_traitsIcEENS_9allocatorIcEEEElEEPvEENS_22__tree_node_destructorINS6_ISB_EEEEEC2B7v160006ILb1EvEEPSB_NS_16__dependent_typeINS_27__unique_ptr_deleter_sfinaeISE_EEXT_EE20__good_rval_ref_typeE, symObjAddr: 0xAA94, symBinAddr: 0x10000D164, symSize: 0x5C }
  - { offsetInCU: 0x203E7, offset: 0x203E7, size: 0x8, addend: 0x0, symName: __ZNSt3__117__compressed_pairIPNS_11__tree_nodeINS_12__value_typeINS_12basic_stringIcNS_11char_traitsIcEENS_9allocatorIcEEEElEEPvEENS_22__tree_node_destructorINS6_ISB_EEEEEC1B7v160006IRSC_SF_EEOT_OT0_, symObjAddr: 0xAAF0, symBinAddr: 0x10000D1C0, symSize: 0x3C }
  - { offsetInCU: 0x2043F, offset: 0x2043F, size: 0x8, addend: 0x0, symName: __ZNSt3__117__compressed_pairIPNS_11__tree_nodeINS_12__value_typeINS_12basic_stringIcNS_11char_traitsIcEENS_9allocatorIcEEEElEEPvEENS_22__tree_node_destructorINS6_ISB_EEEEEC2B7v160006IRSC_SF_EEOT_OT0_, symObjAddr: 0xAB2C, symBinAddr: 0x10000D1FC, symSize: 0x48 }
  - { offsetInCU: 0x20497, offset: 0x20497, size: 0x8, addend: 0x0, symName: __ZNSt3__122__compressed_pair_elemIPNS_11__tree_nodeINS_12__value_typeINS_12basic_stringIcNS_11char_traitsIcEENS_9allocatorIcEEEElEEPvEELi0ELb0EEC2B7v160006IRSC_vEEOT_, symObjAddr: 0xAB74, symBinAddr: 0x10000D244, symSize: 0x24 }
  - { offsetInCU: 0x204D9, offset: 0x204D9, size: 0x8, addend: 0x0, symName: __ZNSt3__122__compressed_pair_elemINS_22__tree_node_destructorINS_9allocatorINS_11__tree_nodeINS_12__value_typeINS_12basic_stringIcNS_11char_traitsIcEENS2_IcEEEElEEPvEEEEEELi1ELb0EEC2B7v160006ISE_vEEOT_, symObjAddr: 0xAB98, symBinAddr: 0x10000D268, symSize: 0x24 }
  - { offsetInCU: 0x2051B, offset: 0x2051B, size: 0x8, addend: 0x0, symName: __ZNSt3__19allocatorINS_11__tree_nodeINS_12__value_typeINS_12basic_stringIcNS_11char_traitsIcEENS0_IcEEEElEEPvEEE9constructB7v160006INS_4pairIKS7_lEEJRKSF_EEEvPT_DpOT0_, symObjAddr: 0xABBC, symBinAddr: 0x10000D28C, symSize: 0x30 }
  - { offsetInCU: 0x20571, offset: 0x20571, size: 0x8, addend: 0x0, symName: __ZNSt3__14pairIKNS_12basic_stringIcNS_11char_traitsIcEENS_9allocatorIcEEEElEC1ERKS8_, symObjAddr: 0xABEC, symBinAddr: 0x10000D2BC, symSize: 0x34 }
  - { offsetInCU: 0x205A5, offset: 0x205A5, size: 0x8, addend: 0x0, symName: __ZNSt3__14pairIKNS_12basic_stringIcNS_11char_traitsIcEENS_9allocatorIcEEEElEC2ERKS8_, symObjAddr: 0xAC20, symBinAddr: 0x10000D2F0, symSize: 0x40 }
  - { offsetInCU: 0x205D9, offset: 0x205D9, size: 0x8, addend: 0x0, symName: __ZNKSt3__117__compressed_pairIPNS_11__tree_nodeINS_12__value_typeINS_12basic_stringIcNS_11char_traitsIcEENS_9allocatorIcEEEElEEPvEENS_22__tree_node_destructorINS6_ISB_EEEEE5firstB7v160006Ev, symObjAddr: 0xAC60, symBinAddr: 0x10000D330, symSize: 0x24 }
  - { offsetInCU: 0x205FF, offset: 0x205FF, size: 0x8, addend: 0x0, symName: __ZNKSt3__122__compressed_pair_elemIPNS_11__tree_nodeINS_12__value_typeINS_12basic_stringIcNS_11char_traitsIcEENS_9allocatorIcEEEElEEPvEELi0ELb0EE5__getB7v160006Ev, symObjAddr: 0xAC84, symBinAddr: 0x10000D354, symSize: 0x14 }
  - { offsetInCU: 0x20625, offset: 0x20625, size: 0x8, addend: 0x0, symName: __ZNSt3__117__compressed_pairIPNS_11__tree_nodeINS_12__value_typeINS_12basic_stringIcNS_11char_traitsIcEENS_9allocatorIcEEEElEEPvEENS_22__tree_node_destructorINS6_ISB_EEEEE6secondB7v160006Ev, symObjAddr: 0xAC98, symBinAddr: 0x10000D368, symSize: 0x28 }
  - { offsetInCU: 0x2064B, offset: 0x2064B, size: 0x8, addend: 0x0, symName: __ZNSt3__122__compressed_pair_elemINS_22__tree_node_destructorINS_9allocatorINS_11__tree_nodeINS_12__value_typeINS_12basic_stringIcNS_11char_traitsIcEENS2_IcEEEElEEPvEEEEEELi1ELb0EE5__getB7v160006Ev, symObjAddr: 0xACC0, symBinAddr: 0x10000D390, symSize: 0x14 }
  - { offsetInCU: 0x20671, offset: 0x20671, size: 0x8, addend: 0x0, symName: __ZNSt3__117__compressed_pairIPNS_11__tree_nodeINS_12__value_typeINS_12basic_stringIcNS_11char_traitsIcEENS_9allocatorIcEEEElEEPvEENS_22__tree_node_destructorINS6_ISB_EEEEE5firstB7v160006Ev, symObjAddr: 0xACD4, symBinAddr: 0x10000D3A4, symSize: 0x24 }
  - { offsetInCU: 0x20697, offset: 0x20697, size: 0x8, addend: 0x0, symName: __ZNSt3__122__compressed_pair_elemIPNS_11__tree_nodeINS_12__value_typeINS_12basic_stringIcNS_11char_traitsIcEENS_9allocatorIcEEEElEEPvEELi0ELb0EE5__getB7v160006Ev, symObjAddr: 0xACF8, symBinAddr: 0x10000D3C8, symSize: 0x14 }
  - { offsetInCU: 0x206BD, offset: 0x206BD, size: 0x8, addend: 0x0, symName: __ZNSt3__110unique_ptrINS_11__tree_nodeINS_12__value_typeINS_12basic_stringIcNS_11char_traitsIcEENS_9allocatorIcEEEElEEPvEENS_22__tree_node_destructorINS6_ISB_EEEEED2B7v160006Ev, symObjAddr: 0xAD0C, symBinAddr: 0x10000D3DC, symSize: 0x30 }
  - { offsetInCU: 0x206E7, offset: 0x206E7, size: 0x8, addend: 0x0, symName: __ZNSt3__110unique_ptrINS_11__tree_nodeINS_12__value_typeINS_12basic_stringIcNS_11char_traitsIcEENS_9allocatorIcEEEElEEPvEENS_22__tree_node_destructorINS6_ISB_EEEEE5resetB7v160006EPSB_, symObjAddr: 0xAD3C, symBinAddr: 0x10000D40C, symSize: 0x78 }
  - { offsetInCU: 0x2072B, offset: 0x2072B, size: 0x8, addend: 0x0, symName: __ZNSt3__122__tree_node_destructorINS_9allocatorINS_11__tree_nodeINS_12__value_typeINS_12basic_stringIcNS_11char_traitsIcEENS1_IcEEEElEEPvEEEEEclB7v160006EPSB_, symObjAddr: 0xADB4, symBinAddr: 0x10000D484, symSize: 0xAC }
  - { offsetInCU: 0x20760, offset: 0x20760, size: 0x8, addend: 0x0, symName: __ZNSt3__115__tree_iteratorINS_12__value_typeINS_12basic_stringIcNS_11char_traitsIcEENS_9allocatorIcEEEElEEPNS_11__tree_nodeIS8_PvEElEC2B7v160006ESC_, symObjAddr: 0xAE60, symBinAddr: 0x10000D530, symSize: 0x20 }
  - { offsetInCU: 0x20799, offset: 0x20799, size: 0x8, addend: 0x0, symName: __ZNSt3__14pairINS_15__tree_iteratorINS_12__value_typeINS_12basic_stringIcNS_11char_traitsIcEENS_9allocatorIcEEEElEEPNS_11__tree_nodeIS9_PvEElEEbEC2B7v160006ERKSE_RKb, symObjAddr: 0xAE80, symBinAddr: 0x10000D550, symSize: 0x38 }
  - { offsetInCU: 0x207DF, offset: 0x207DF, size: 0x8, addend: 0x0, symName: __ZNSt3__114__map_iteratorINS_15__tree_iteratorINS_12__value_typeINS_12basic_stringIcNS_11char_traitsIcEENS_9allocatorIcEEEElEEPNS_11__tree_nodeIS9_PvEElEEEC2B7v160006ESE_, symObjAddr: 0xAEB8, symBinAddr: 0x10000D588, symSize: 0x20 }
  - { offsetInCU: 0x20818, offset: 0x20818, size: 0x8, addend: 0x0, symName: __ZNSt3__120__map_const_iteratorINS_21__tree_const_iteratorINS_12__value_typeINS_12basic_stringIcNS_11char_traitsIcEENS_9allocatorIcEEEElEEPNS_11__tree_nodeIS9_PvEElEEEC2B7v160006ESE_, symObjAddr: 0xAED8, symBinAddr: 0x10000D5A8, symSize: 0x20 }
  - { offsetInCU: 0x20851, offset: 0x20851, size: 0x8, addend: 0x0, symName: __ZNKSt3__121__tree_const_iteratorINS_12__value_typeINS_12basic_stringIcNS_11char_traitsIcEENS_9allocatorIcEEEElEEPNS_11__tree_nodeIS8_PvEElEptB7v160006Ev, symObjAddr: 0xAEF8, symBinAddr: 0x10000D5C8, symSize: 0x2C }
  - { offsetInCU: 0x20877, offset: 0x20877, size: 0x8, addend: 0x0, symName: __ZNSt3__114pointer_traitsIPKNS_12__value_typeINS_12basic_stringIcNS_11char_traitsIcEENS_9allocatorIcEEEElEEE10pointer_toB7v160006ERS9_, symObjAddr: 0xAF24, symBinAddr: 0x10000D5F4, symSize: 0x14 }
  - { offsetInCU: 0x2089A, offset: 0x2089A, size: 0x8, addend: 0x0, symName: __ZNKSt3__16__treeINS_12__value_typeINS_12basic_stringIcNS_11char_traitsIcEENS_9allocatorIcEEEElEENS_19__map_value_compareIS7_S8_NS_4lessIS7_EELb1EEENS5_IS8_EEE5beginB7v160006Ev, symObjAddr: 0xAF38, symBinAddr: 0x10000D608, symSize: 0x34 }
  - { offsetInCU: 0x208C0, offset: 0x208C0, size: 0x8, addend: 0x0, symName: __ZNKSt3__16__treeINS_12__value_typeINS_12basic_stringIcNS_11char_traitsIcEENS_9allocatorIcEEEElEENS_19__map_value_compareIS7_S8_NS_4lessIS7_EELb1EEENS5_IS8_EEE12__begin_nodeB7v160006Ev, symObjAddr: 0xAF6C, symBinAddr: 0x10000D63C, symSize: 0x14 }
  - { offsetInCU: 0x208E6, offset: 0x208E6, size: 0x8, addend: 0x0, symName: __ZNSt3__121__tree_const_iteratorINS_12__value_typeINS_12basic_stringIcNS_11char_traitsIcEENS_9allocatorIcEEEElEEPNS_11__tree_nodeIS8_PvEElEC1B7v160006EPNS_15__tree_end_nodeIPNS_16__tree_node_baseISA_EEEE, symObjAddr: 0xAF80, symBinAddr: 0x10000D650, symSize: 0x34 }
  - { offsetInCU: 0x2091F, offset: 0x2091F, size: 0x8, addend: 0x0, symName: __ZNSt3__121__tree_const_iteratorINS_12__value_typeINS_12basic_stringIcNS_11char_traitsIcEENS_9allocatorIcEEEElEEPNS_11__tree_nodeIS8_PvEElEC2B7v160006EPNS_15__tree_end_nodeIPNS_16__tree_node_baseISA_EEEE, symObjAddr: 0xAFB4, symBinAddr: 0x10000D684, symSize: 0x20 }
  - { offsetInCU: 0x20958, offset: 0x20958, size: 0x8, addend: 0x0, symName: __ZNKSt3__16__treeINS_12__value_typeINS_12basic_stringIcNS_11char_traitsIcEENS_9allocatorIcEEEElEENS_19__map_value_compareIS7_S8_NS_4lessIS7_EELb1EEENS5_IS8_EEE3endB7v160006Ev, symObjAddr: 0xAFD4, symBinAddr: 0x10000D6A4, symSize: 0x34 }
  - { offsetInCU: 0x2097E, offset: 0x2097E, size: 0x8, addend: 0x0, symName: __ZNSt3__16__treeINS_12__value_typeIm9ConditionEENS_19__map_value_compareImS3_NS_4lessImEELb1EEENS_9allocatorIS3_EEE5clearEv, symObjAddr: 0xB008, symBinAddr: 0x10000D6D8, symSize: 0x74 }
  - { offsetInCU: 0x209A6, offset: 0x209A6, size: 0x8, addend: 0x0, symName: __ZNKSt3__16__treeINS_12__value_typeIm9ConditionEENS_19__map_value_compareImS3_NS_4lessImEELb1EEENS_9allocatorIS3_EEE10value_compB7v160006Ev, symObjAddr: 0xB07C, symBinAddr: 0x10000D74C, symSize: 0x28 }
  - { offsetInCU: 0x209CC, offset: 0x209CC, size: 0x8, addend: 0x0, symName: __ZNSt3__16__treeINS_12__value_typeIm9ConditionEENS_19__map_value_compareImS3_NS_4lessImEELb1EEENS_9allocatorIS3_EEE10value_compB7v160006Ev, symObjAddr: 0xB0A4, symBinAddr: 0x10000D774, symSize: 0x28 }
  - { offsetInCU: 0x209F2, offset: 0x209F2, size: 0x8, addend: 0x0, symName: __ZNSt3__16__treeINS_12__value_typeIm9ConditionEENS_19__map_value_compareImS3_NS_4lessImEELb1EEENS_9allocatorIS3_EEE19__copy_assign_allocB7v160006ERKSA_, symObjAddr: 0xB0CC, symBinAddr: 0x10000D79C, symSize: 0x2C }
  - { offsetInCU: 0x20A27, offset: 0x20A27, size: 0x8, addend: 0x0, symName: __ZNSt3__13mapIm9ConditionNS_4lessImEENS_9allocatorINS_4pairIKmS1_EEEEE6insertB7v160006INS_20__map_const_iteratorINS_21__tree_const_iteratorINS_12__value_typeImS1_EEPNS_11__tree_nodeISE_PvEElEEEEEEvT_SL_, symObjAddr: 0xB0F8, symBinAddr: 0x10000D7C8, symSize: 0x8C }
  - { offsetInCU: 0x20A91, offset: 0x20A91, size: 0x8, addend: 0x0, symName: __ZNKSt3__13mapIm9ConditionNS_4lessImEENS_9allocatorINS_4pairIKmS1_EEEEE5beginB7v160006Ev, symObjAddr: 0xB184, symBinAddr: 0x10000D854, symSize: 0x38 }
  - { offsetInCU: 0x20AB7, offset: 0x20AB7, size: 0x8, addend: 0x0, symName: __ZNKSt3__13mapIm9ConditionNS_4lessImEENS_9allocatorINS_4pairIKmS1_EEEEE3endB7v160006Ev, symObjAddr: 0xB1BC, symBinAddr: 0x10000D88C, symSize: 0x38 }
  - { offsetInCU: 0x20ADD, offset: 0x20ADD, size: 0x8, addend: 0x0, symName: __ZNSt3__16__treeINS_12__value_typeIm9ConditionEENS_19__map_value_compareImS3_NS_4lessImEELb1EEENS_9allocatorIS3_EEE4sizeB7v160006Ev, symObjAddr: 0xB1F4, symBinAddr: 0x10000D8C4, symSize: 0x28 }
  - { offsetInCU: 0x20B03, offset: 0x20B03, size: 0x8, addend: 0x0, symName: __ZNSt3__117__compressed_pairImNS_19__map_value_compareImNS_12__value_typeIm9ConditionEENS_4lessImEELb1EEEE5firstB7v160006Ev, symObjAddr: 0xB21C, symBinAddr: 0x10000D8EC, symSize: 0x24 }
  - { offsetInCU: 0x20B29, offset: 0x20B29, size: 0x8, addend: 0x0, symName: __ZNKSt3__117__compressed_pairImNS_19__map_value_compareImNS_12__value_typeIm9ConditionEENS_4lessImEELb1EEEE6secondB7v160006Ev, symObjAddr: 0xB240, symBinAddr: 0x10000D910, symSize: 0x24 }
  - { offsetInCU: 0x20B4F, offset: 0x20B4F, size: 0x8, addend: 0x0, symName: __ZNKSt3__122__compressed_pair_elemINS_19__map_value_compareImNS_12__value_typeIm9ConditionEENS_4lessImEELb1EEELi1ELb1EE5__getB7v160006Ev, symObjAddr: 0xB264, symBinAddr: 0x10000D934, symSize: 0x14 }
  - { offsetInCU: 0x20B75, offset: 0x20B75, size: 0x8, addend: 0x0, symName: __ZNSt3__117__compressed_pairImNS_19__map_value_compareImNS_12__value_typeIm9ConditionEENS_4lessImEELb1EEEE6secondB7v160006Ev, symObjAddr: 0xB278, symBinAddr: 0x10000D948, symSize: 0x24 }
  - { offsetInCU: 0x20B9B, offset: 0x20B9B, size: 0x8, addend: 0x0, symName: __ZNSt3__122__compressed_pair_elemINS_19__map_value_compareImNS_12__value_typeIm9ConditionEENS_4lessImEELb1EEELi1ELb1EE5__getB7v160006Ev, symObjAddr: 0xB29C, symBinAddr: 0x10000D96C, symSize: 0x14 }
  - { offsetInCU: 0x20BC1, offset: 0x20BC1, size: 0x8, addend: 0x0, symName: __ZNSt3__16__treeINS_12__value_typeIm9ConditionEENS_19__map_value_compareImS3_NS_4lessImEELb1EEENS_9allocatorIS3_EEE19__copy_assign_allocB7v160006ERKSA_NS_17integral_constantIbLb0EEE, symObjAddr: 0xB2B0, symBinAddr: 0x10000D980, symSize: 0x14 }
  - { offsetInCU: 0x20BFF, offset: 0x20BFF, size: 0x8, addend: 0x0, symName: __ZNKSt3__13mapIm9ConditionNS_4lessImEENS_9allocatorINS_4pairIKmS1_EEEEE4cendB7v160006Ev, symObjAddr: 0xB2C4, symBinAddr: 0x10000D994, symSize: 0x2C }
  - { offsetInCU: 0x20C25, offset: 0x20C25, size: 0x8, addend: 0x0, symName: __ZNSt3__13mapIm9ConditionNS_4lessImEENS_9allocatorINS_4pairIKmS1_EEEEE6insertB7v160006ENS_20__map_const_iteratorINS_21__tree_const_iteratorINS_12__value_typeImS1_EEPNS_11__tree_nodeISD_PvEElEEEERKS7_, symObjAddr: 0xB320, symBinAddr: 0x10000D9F0, symSize: 0x50 }
  - { offsetInCU: 0x20C69, offset: 0x20C69, size: 0x8, addend: 0x0, symName: __ZNSt3__120__map_const_iteratorINS_21__tree_const_iteratorINS_12__value_typeIm9ConditionEEPNS_11__tree_nodeIS4_PvEElEEEC1B7v160006ES9_, symObjAddr: 0xB370, symBinAddr: 0x10000DA40, symSize: 0x34 }
  - { offsetInCU: 0x20CA2, offset: 0x20CA2, size: 0x8, addend: 0x0, symName: __ZNKSt3__120__map_const_iteratorINS_21__tree_const_iteratorINS_12__value_typeIm9ConditionEEPNS_11__tree_nodeIS4_PvEElEEEdeB7v160006Ev, symObjAddr: 0xB3A4, symBinAddr: 0x10000DA74, symSize: 0x28 }
  - { offsetInCU: 0x20CC8, offset: 0x20CC8, size: 0x8, addend: 0x0, symName: __ZNSt3__120__map_const_iteratorINS_21__tree_const_iteratorINS_12__value_typeIm9ConditionEEPNS_11__tree_nodeIS4_PvEElEEEppB7v160006Ev, symObjAddr: 0xB3CC, symBinAddr: 0x10000DA9C, symSize: 0x2C }
  - { offsetInCU: 0x20CEE, offset: 0x20CEE, size: 0x8, addend: 0x0, symName: __ZNSt3__16__treeINS_12__value_typeIm9ConditionEENS_19__map_value_compareImS3_NS_4lessImEELb1EEENS_9allocatorIS3_EEE15__insert_uniqueB7v160006ENS_21__tree_const_iteratorIS3_PNS_11__tree_nodeIS3_PvEElEERKNS_4pairIKmS2_EE, symObjAddr: 0xB45C, symBinAddr: 0x10000DB2C, symSize: 0x64 }
  - { offsetInCU: 0x20D32, offset: 0x20D32, size: 0x8, addend: 0x0, symName: __ZNSt3__114__map_iteratorINS_15__tree_iteratorINS_12__value_typeIm9ConditionEEPNS_11__tree_nodeIS4_PvEElEEEC1B7v160006ES9_, symObjAddr: 0xB4C0, symBinAddr: 0x10000DB90, symSize: 0x34 }
  - { offsetInCU: 0x20D6B, offset: 0x20D6B, size: 0x8, addend: 0x0, symName: __ZNSt3__16__treeINS_12__value_typeIm9ConditionEENS_19__map_value_compareImS3_NS_4lessImEELb1EEENS_9allocatorIS3_EEE30__emplace_hint_unique_key_argsImJRKNS_4pairIKmS2_EEEEENSC_INS_15__tree_iteratorIS3_PNS_11__tree_nodeIS3_PvEElEEbEENS_21__tree_const_iteratorIS3_SL_lEERKT_DpOT0_, symObjAddr: 0xB4F4, symBinAddr: 0x10000DBC4, symSize: 0x104 }
  - { offsetInCU: 0x20E37, offset: 0x20E37, size: 0x8, addend: 0x0, symName: __ZNSt3__122__tree_key_value_typesINS_12__value_typeIm9ConditionEEE9__get_keyB7v160006IKNS_4pairIKmS2_EEEENS_9enable_ifIXsr17__is_same_uncvrefIT_S8_EE5valueERS7_E4typeERSB_, symObjAddr: 0xB5F8, symBinAddr: 0x10000DCC8, symSize: 0x14 }
  - { offsetInCU: 0x20E64, offset: 0x20E64, size: 0x8, addend: 0x0, symName: __ZNSt3__16__treeINS_12__value_typeIm9ConditionEENS_19__map_value_compareImS3_NS_4lessImEELb1EEENS_9allocatorIS3_EEE12__find_equalImEERPNS_16__tree_node_baseIPvEENS_21__tree_const_iteratorIS3_PNS_11__tree_nodeIS3_SD_EElEERPNS_15__tree_end_nodeISF_EESG_RKT_, symObjAddr: 0xB60C, symBinAddr: 0x10000DCDC, symSize: 0x304 }
  - { offsetInCU: 0x20F0D, offset: 0x20F0D, size: 0x8, addend: 0x0, symName: __ZNSt3__16__treeINS_12__value_typeIm9ConditionEENS_19__map_value_compareImS3_NS_4lessImEELb1EEENS_9allocatorIS3_EEE16__construct_nodeIJRKNS_4pairIKmS2_EEEEENS_10unique_ptrINS_11__tree_nodeIS3_PvEENS_22__tree_node_destructorINS8_ISK_EEEEEEDpOT_, symObjAddr: 0xB910, symBinAddr: 0x10000DFE0, symSize: 0x118 }
  - { offsetInCU: 0x20F6E, offset: 0x20F6E, size: 0x8, addend: 0x0, symName: __ZNSt3__16__treeINS_12__value_typeIm9ConditionEENS_19__map_value_compareImS3_NS_4lessImEELb1EEENS_9allocatorIS3_EEE16__insert_node_atEPNS_15__tree_end_nodeIPNS_16__tree_node_baseIPvEEEERSF_SF_, symObjAddr: 0xBA28, symBinAddr: 0x10000E0F8, symSize: 0xCC }
  - { offsetInCU: 0x20FC3, offset: 0x20FC3, size: 0x8, addend: 0x0, symName: __ZNKSt3__110unique_ptrINS_11__tree_nodeINS_12__value_typeIm9ConditionEEPvEENS_22__tree_node_destructorINS_9allocatorIS6_EEEEE3getB7v160006Ev, symObjAddr: 0xBAF4, symBinAddr: 0x10000E1C4, symSize: 0x28 }
  - { offsetInCU: 0x20FE9, offset: 0x20FE9, size: 0x8, addend: 0x0, symName: __ZNSt3__110unique_ptrINS_11__tree_nodeINS_12__value_typeIm9ConditionEEPvEENS_22__tree_node_destructorINS_9allocatorIS6_EEEEE7releaseB7v160006Ev, symObjAddr: 0xBB1C, symBinAddr: 0x10000E1EC, symSize: 0x44 }
  - { offsetInCU: 0x2101E, offset: 0x2101E, size: 0x8, addend: 0x0, symName: __ZNSt3__110unique_ptrINS_11__tree_nodeINS_12__value_typeIm9ConditionEEPvEENS_22__tree_node_destructorINS_9allocatorIS6_EEEEED1B7v160006Ev, symObjAddr: 0xBB60, symBinAddr: 0x10000E230, symSize: 0x2C }
  - { offsetInCU: 0x21048, offset: 0x21048, size: 0x8, addend: 0x0, symName: __ZNSt3__115__tree_iteratorINS_12__value_typeIm9ConditionEEPNS_11__tree_nodeIS3_PvEElEC1B7v160006ES7_, symObjAddr: 0xBB8C, symBinAddr: 0x10000E25C, symSize: 0x34 }
  - { offsetInCU: 0x21081, offset: 0x21081, size: 0x8, addend: 0x0, symName: __ZNSt3__14pairINS_15__tree_iteratorINS_12__value_typeIm9ConditionEEPNS_11__tree_nodeIS4_PvEElEEbEC1B7v160006ERKS9_RKb, symObjAddr: 0xBBC0, symBinAddr: 0x10000E290, symSize: 0x3C }
  - { offsetInCU: 0x210C7, offset: 0x210C7, size: 0x8, addend: 0x0, symName: __ZNSt3__16__treeINS_12__value_typeIm9ConditionEENS_19__map_value_compareImS3_NS_4lessImEELb1EEENS_9allocatorIS3_EEE3endB7v160006Ev, symObjAddr: 0xBBFC, symBinAddr: 0x10000E2CC, symSize: 0x34 }
  - { offsetInCU: 0x210ED, offset: 0x210ED, size: 0x8, addend: 0x0, symName: __ZNSt3__121__tree_const_iteratorINS_12__value_typeIm9ConditionEEPNS_11__tree_nodeIS3_PvEElEC1B7v160006ENS_15__tree_iteratorIS3_S7_lEE, symObjAddr: 0xBC30, symBinAddr: 0x10000E300, symSize: 0x34 }
  - { offsetInCU: 0x21126, offset: 0x21126, size: 0x8, addend: 0x0, symName: __ZNKSt3__119__map_value_compareImNS_12__value_typeIm9ConditionEENS_4lessImEELb1EEclB7v160006ERKmRKS3_, symObjAddr: 0xBC64, symBinAddr: 0x10000E334, symSize: 0x50 }
  - { offsetInCU: 0x2116A, offset: 0x2116A, size: 0x8, addend: 0x0, symName: __ZNKSt3__121__tree_const_iteratorINS_12__value_typeIm9ConditionEEPNS_11__tree_nodeIS3_PvEElEdeB7v160006Ev, symObjAddr: 0xBCB4, symBinAddr: 0x10000E384, symSize: 0x28 }
  - { offsetInCU: 0x21190, offset: 0x21190, size: 0x8, addend: 0x0, symName: __ZNSt3__16__treeINS_12__value_typeIm9ConditionEENS_19__map_value_compareImS3_NS_4lessImEELb1EEENS_9allocatorIS3_EEE5beginB7v160006Ev, symObjAddr: 0xBCDC, symBinAddr: 0x10000E3AC, symSize: 0x34 }
  - { offsetInCU: 0x211B6, offset: 0x211B6, size: 0x8, addend: 0x0, symName: __ZNKSt3__119__map_value_compareImNS_12__value_typeIm9ConditionEENS_4lessImEELb1EEclB7v160006ERKS3_RKm, symObjAddr: 0xBD10, symBinAddr: 0x10000E3E0, symSize: 0x48 }
  - { offsetInCU: 0x211FA, offset: 0x211FA, size: 0x8, addend: 0x0, symName: __ZNSt3__121__tree_const_iteratorINS_12__value_typeIm9ConditionEEPNS_11__tree_nodeIS3_PvEElEmmB7v160006Ev, symObjAddr: 0xBD58, symBinAddr: 0x10000E428, symSize: 0x38 }
  - { offsetInCU: 0x21220, offset: 0x21220, size: 0x8, addend: 0x0, symName: __ZNSt3__16__treeINS_12__value_typeIm9ConditionEENS_19__map_value_compareImS3_NS_4lessImEELb1EEENS_9allocatorIS3_EEE12__find_equalImEERPNS_16__tree_node_baseIPvEERPNS_15__tree_end_nodeISF_EERKT_, symObjAddr: 0xBD90, symBinAddr: 0x10000E460, symSize: 0x184 }
  - { offsetInCU: 0x2128D, offset: 0x2128D, size: 0x8, addend: 0x0, symName: __ZNKSt3__121__tree_const_iteratorINS_12__value_typeIm9ConditionEEPNS_11__tree_nodeIS3_PvEElE8__get_npB7v160006Ev, symObjAddr: 0xBF64, symBinAddr: 0x10000E634, symSize: 0x18 }
  - { offsetInCU: 0x212B3, offset: 0x212B3, size: 0x8, addend: 0x0, symName: __ZNSt3__115__tree_iteratorINS_12__value_typeIm9ConditionEEPNS_11__tree_nodeIS3_PvEElEC1B7v160006EPNS_15__tree_end_nodeIPNS_16__tree_node_baseIS5_EEEE, symObjAddr: 0xBF7C, symBinAddr: 0x10000E64C, symSize: 0x34 }
  - { offsetInCU: 0x212EC, offset: 0x212EC, size: 0x8, addend: 0x0, symName: __ZNSt3__115__tree_iteratorINS_12__value_typeIm9ConditionEEPNS_11__tree_nodeIS3_PvEElEC2B7v160006EPNS_15__tree_end_nodeIPNS_16__tree_node_baseIS5_EEEE, symObjAddr: 0xBFB0, symBinAddr: 0x10000E680, symSize: 0x20 }
  - { offsetInCU: 0x21325, offset: 0x21325, size: 0x8, addend: 0x0, symName: __ZNSt3__121__tree_const_iteratorINS_12__value_typeIm9ConditionEEPNS_11__tree_nodeIS3_PvEElEC2B7v160006ENS_15__tree_iteratorIS3_S7_lEE, symObjAddr: 0xBFD0, symBinAddr: 0x10000E6A0, symSize: 0x20 }
  - { offsetInCU: 0x2135E, offset: 0x2135E, size: 0x8, addend: 0x0, symName: __ZNKSt3__112__value_typeIm9ConditionE11__get_valueB7v160006Ev, symObjAddr: 0xBFF0, symBinAddr: 0x10000E6C0, symSize: 0x14 }
  - { offsetInCU: 0x21384, offset: 0x21384, size: 0x8, addend: 0x0, symName: __ZNKSt3__16__treeINS_12__value_typeIm9ConditionEENS_19__map_value_compareImS3_NS_4lessImEELb1EEENS_9allocatorIS3_EEE10__root_ptrEv, symObjAddr: 0xC004, symBinAddr: 0x10000E6D4, symSize: 0x24 }
  - { offsetInCU: 0x213AA, offset: 0x213AA, size: 0x8, addend: 0x0, symName: __ZNSt3__121__tree_const_iteratorINS_12__value_typeIm9ConditionEEPNS_11__tree_nodeIS3_PvEElEppB7v160006Ev, symObjAddr: 0xC11C, symBinAddr: 0x10000E7EC, symSize: 0x38 }
  - { offsetInCU: 0x213D0, offset: 0x213D0, size: 0x8, addend: 0x0, symName: __ZNSt3__116allocator_traitsINS_9allocatorINS_11__tree_nodeINS_12__value_typeIm9ConditionEEPvEEEEE8allocateB7v160006ERS8_m, symObjAddr: 0xC154, symBinAddr: 0x10000E824, symSize: 0x2C }
  - { offsetInCU: 0x21403, offset: 0x21403, size: 0x8, addend: 0x0, symName: __ZNSt3__122__tree_node_destructorINS_9allocatorINS_11__tree_nodeINS_12__value_typeIm9ConditionEEPvEEEEEC1B7v160006ERS8_b, symObjAddr: 0xC180, symBinAddr: 0x10000E850, symSize: 0x48 }
  - { offsetInCU: 0x21450, offset: 0x21450, size: 0x8, addend: 0x0, symName: __ZNSt3__110unique_ptrINS_11__tree_nodeINS_12__value_typeIm9ConditionEEPvEENS_22__tree_node_destructorINS_9allocatorIS6_EEEEEC1B7v160006ILb1EvEEPS6_NS_16__dependent_typeINS_27__unique_ptr_deleter_sfinaeISA_EEXT_EE20__good_rval_ref_typeE, symObjAddr: 0xC1C8, symBinAddr: 0x10000E898, symSize: 0x3C }
  - { offsetInCU: 0x214A1, offset: 0x214A1, size: 0x8, addend: 0x0, symName: __ZNSt3__116allocator_traitsINS_9allocatorINS_11__tree_nodeINS_12__value_typeIm9ConditionEEPvEEEEE9constructB7v160006INS_4pairIKmS4_EEJRKSD_EvEEvRS8_PT_DpOT0_, symObjAddr: 0xC204, symBinAddr: 0x10000E8D4, symSize: 0x34 }
  - { offsetInCU: 0x214F8, offset: 0x214F8, size: 0x8, addend: 0x0, symName: __ZNKSt3__110unique_ptrINS_11__tree_nodeINS_12__value_typeIm9ConditionEEPvEENS_22__tree_node_destructorINS_9allocatorIS6_EEEEEptB7v160006Ev, symObjAddr: 0xC238, symBinAddr: 0x10000E908, symSize: 0x28 }
  - { offsetInCU: 0x2151E, offset: 0x2151E, size: 0x8, addend: 0x0, symName: __ZNSt3__110unique_ptrINS_11__tree_nodeINS_12__value_typeIm9ConditionEEPvEENS_22__tree_node_destructorINS_9allocatorIS6_EEEEE11get_deleterB7v160006Ev, symObjAddr: 0xC260, symBinAddr: 0x10000E930, symSize: 0x24 }
  - { offsetInCU: 0x21544, offset: 0x21544, size: 0x8, addend: 0x0, symName: __ZNSt3__19allocatorINS_11__tree_nodeINS_12__value_typeIm9ConditionEEPvEEE8allocateB7v160006Em, symObjAddr: 0xC284, symBinAddr: 0x10000E954, symSize: 0x8C }
  - { offsetInCU: 0x21582, offset: 0x21582, size: 0x8, addend: 0x0, symName: __ZNSt3__116allocator_traitsINS_9allocatorINS_11__tree_nodeINS_12__value_typeIm9ConditionEEPvEEEEE8max_sizeB7v160006IS8_vEEmRKS8_, symObjAddr: 0xC310, symBinAddr: 0x10000E9E0, symSize: 0x24 }
  - { offsetInCU: 0x215B0, offset: 0x215B0, size: 0x8, addend: 0x0, symName: __ZNKSt3__19allocatorINS_11__tree_nodeINS_12__value_typeIm9ConditionEEPvEEE8max_sizeB7v160006Ev, symObjAddr: 0xC334, symBinAddr: 0x10000EA04, symSize: 0x20 }
  - { offsetInCU: 0x215D6, offset: 0x215D6, size: 0x8, addend: 0x0, symName: __ZNSt3__122__tree_node_destructorINS_9allocatorINS_11__tree_nodeINS_12__value_typeIm9ConditionEEPvEEEEEC2B7v160006ERS8_b, symObjAddr: 0xC354, symBinAddr: 0x10000EA24, symSize: 0x38 }
  - { offsetInCU: 0x2161E, offset: 0x2161E, size: 0x8, addend: 0x0, symName: __ZNSt3__110unique_ptrINS_11__tree_nodeINS_12__value_typeIm9ConditionEEPvEENS_22__tree_node_destructorINS_9allocatorIS6_EEEEEC2B7v160006ILb1EvEEPS6_NS_16__dependent_typeINS_27__unique_ptr_deleter_sfinaeISA_EEXT_EE20__good_rval_ref_typeE, symObjAddr: 0xC38C, symBinAddr: 0x10000EA5C, symSize: 0x5C }
  - { offsetInCU: 0x2166F, offset: 0x2166F, size: 0x8, addend: 0x0, symName: __ZNSt3__117__compressed_pairIPNS_11__tree_nodeINS_12__value_typeIm9ConditionEEPvEENS_22__tree_node_destructorINS_9allocatorIS6_EEEEEC1B7v160006IRS7_SB_EEOT_OT0_, symObjAddr: 0xC3E8, symBinAddr: 0x10000EAB8, symSize: 0x3C }
  - { offsetInCU: 0x216C7, offset: 0x216C7, size: 0x8, addend: 0x0, symName: __ZNSt3__117__compressed_pairIPNS_11__tree_nodeINS_12__value_typeIm9ConditionEEPvEENS_22__tree_node_destructorINS_9allocatorIS6_EEEEEC2B7v160006IRS7_SB_EEOT_OT0_, symObjAddr: 0xC424, symBinAddr: 0x10000EAF4, symSize: 0x48 }
  - { offsetInCU: 0x2171F, offset: 0x2171F, size: 0x8, addend: 0x0, symName: __ZNSt3__122__compressed_pair_elemIPNS_11__tree_nodeINS_12__value_typeIm9ConditionEEPvEELi0ELb0EEC2B7v160006IRS7_vEEOT_, symObjAddr: 0xC46C, symBinAddr: 0x10000EB3C, symSize: 0x24 }
  - { offsetInCU: 0x21761, offset: 0x21761, size: 0x8, addend: 0x0, symName: __ZNSt3__122__compressed_pair_elemINS_22__tree_node_destructorINS_9allocatorINS_11__tree_nodeINS_12__value_typeIm9ConditionEEPvEEEEEELi1ELb0EEC2B7v160006ISA_vEEOT_, symObjAddr: 0xC490, symBinAddr: 0x10000EB60, symSize: 0x24 }
  - { offsetInCU: 0x217A3, offset: 0x217A3, size: 0x8, addend: 0x0, symName: __ZNSt3__19allocatorINS_11__tree_nodeINS_12__value_typeIm9ConditionEEPvEEE9constructB7v160006INS_4pairIKmS3_EEJRKSB_EEEvPT_DpOT0_, symObjAddr: 0xC4B4, symBinAddr: 0x10000EB84, symSize: 0x30 }
  - { offsetInCU: 0x217F9, offset: 0x217F9, size: 0x8, addend: 0x0, symName: __ZNSt3__14pairIKm9ConditionEC1ERKS3_, symObjAddr: 0xC4E4, symBinAddr: 0x10000EBB4, symSize: 0x34 }
  - { offsetInCU: 0x2182D, offset: 0x2182D, size: 0x8, addend: 0x0, symName: __ZNSt3__14pairIKm9ConditionEC2ERKS3_, symObjAddr: 0xC518, symBinAddr: 0x10000EBE8, symSize: 0x48 }
  - { offsetInCU: 0x21861, offset: 0x21861, size: 0x8, addend: 0x0, symName: __ZN9ConditionC1ERKS_, symObjAddr: 0xC560, symBinAddr: 0x10000EC30, symSize: 0x34 }
  - { offsetInCU: 0x21896, offset: 0x21896, size: 0x8, addend: 0x0, symName: __ZN9ConditionC2ERKS_, symObjAddr: 0xC594, symBinAddr: 0x10000EC64, symSize: 0x40 }
  - { offsetInCU: 0x218CB, offset: 0x218CB, size: 0x8, addend: 0x0, symName: __ZNKSt3__117__compressed_pairIPNS_11__tree_nodeINS_12__value_typeIm9ConditionEEPvEENS_22__tree_node_destructorINS_9allocatorIS6_EEEEE5firstB7v160006Ev, symObjAddr: 0xC5D4, symBinAddr: 0x10000ECA4, symSize: 0x24 }
  - { offsetInCU: 0x218F1, offset: 0x218F1, size: 0x8, addend: 0x0, symName: __ZNKSt3__122__compressed_pair_elemIPNS_11__tree_nodeINS_12__value_typeIm9ConditionEEPvEELi0ELb0EE5__getB7v160006Ev, symObjAddr: 0xC5F8, symBinAddr: 0x10000ECC8, symSize: 0x14 }
  - { offsetInCU: 0x21917, offset: 0x21917, size: 0x8, addend: 0x0, symName: __ZNSt3__117__compressed_pairIPNS_11__tree_nodeINS_12__value_typeIm9ConditionEEPvEENS_22__tree_node_destructorINS_9allocatorIS6_EEEEE6secondB7v160006Ev, symObjAddr: 0xC60C, symBinAddr: 0x10000ECDC, symSize: 0x28 }
  - { offsetInCU: 0x2193D, offset: 0x2193D, size: 0x8, addend: 0x0, symName: __ZNSt3__122__compressed_pair_elemINS_22__tree_node_destructorINS_9allocatorINS_11__tree_nodeINS_12__value_typeIm9ConditionEEPvEEEEEELi1ELb0EE5__getB7v160006Ev, symObjAddr: 0xC634, symBinAddr: 0x10000ED04, symSize: 0x14 }
  - { offsetInCU: 0x21963, offset: 0x21963, size: 0x8, addend: 0x0, symName: __ZNSt3__117__compressed_pairIPNS_11__tree_nodeINS_12__value_typeIm9ConditionEEPvEENS_22__tree_node_destructorINS_9allocatorIS6_EEEEE5firstB7v160006Ev, symObjAddr: 0xC648, symBinAddr: 0x10000ED18, symSize: 0x24 }
  - { offsetInCU: 0x21989, offset: 0x21989, size: 0x8, addend: 0x0, symName: __ZNSt3__122__compressed_pair_elemIPNS_11__tree_nodeINS_12__value_typeIm9ConditionEEPvEELi0ELb0EE5__getB7v160006Ev, symObjAddr: 0xC66C, symBinAddr: 0x10000ED3C, symSize: 0x14 }
  - { offsetInCU: 0x219AF, offset: 0x219AF, size: 0x8, addend: 0x0, symName: __ZNSt3__110unique_ptrINS_11__tree_nodeINS_12__value_typeIm9ConditionEEPvEENS_22__tree_node_destructorINS_9allocatorIS6_EEEEED2B7v160006Ev, symObjAddr: 0xC680, symBinAddr: 0x10000ED50, symSize: 0x30 }
  - { offsetInCU: 0x219D9, offset: 0x219D9, size: 0x8, addend: 0x0, symName: __ZNSt3__110unique_ptrINS_11__tree_nodeINS_12__value_typeIm9ConditionEEPvEENS_22__tree_node_destructorINS_9allocatorIS6_EEEEE5resetB7v160006EPS6_, symObjAddr: 0xC6B0, symBinAddr: 0x10000ED80, symSize: 0x78 }
  - { offsetInCU: 0x21A1D, offset: 0x21A1D, size: 0x8, addend: 0x0, symName: __ZNSt3__122__tree_node_destructorINS_9allocatorINS_11__tree_nodeINS_12__value_typeIm9ConditionEEPvEEEEEclB7v160006EPS7_, symObjAddr: 0xC728, symBinAddr: 0x10000EDF8, symSize: 0xAC }
  - { offsetInCU: 0x21A52, offset: 0x21A52, size: 0x8, addend: 0x0, symName: __ZNSt3__115__tree_iteratorINS_12__value_typeIm9ConditionEEPNS_11__tree_nodeIS3_PvEElEC2B7v160006ES7_, symObjAddr: 0xC7D4, symBinAddr: 0x10000EEA4, symSize: 0x20 }
  - { offsetInCU: 0x21A8B, offset: 0x21A8B, size: 0x8, addend: 0x0, symName: __ZNSt3__14pairINS_15__tree_iteratorINS_12__value_typeIm9ConditionEEPNS_11__tree_nodeIS4_PvEElEEbEC2B7v160006ERKS9_RKb, symObjAddr: 0xC7F4, symBinAddr: 0x10000EEC4, symSize: 0x38 }
  - { offsetInCU: 0x21AD1, offset: 0x21AD1, size: 0x8, addend: 0x0, symName: __ZNSt3__114__map_iteratorINS_15__tree_iteratorINS_12__value_typeIm9ConditionEEPNS_11__tree_nodeIS4_PvEElEEEC2B7v160006ES9_, symObjAddr: 0xC82C, symBinAddr: 0x10000EEFC, symSize: 0x20 }
  - { offsetInCU: 0x21B0A, offset: 0x21B0A, size: 0x8, addend: 0x0, symName: __ZNSt3__120__map_const_iteratorINS_21__tree_const_iteratorINS_12__value_typeIm9ConditionEEPNS_11__tree_nodeIS4_PvEElEEEC2B7v160006ES9_, symObjAddr: 0xC84C, symBinAddr: 0x10000EF1C, symSize: 0x20 }
  - { offsetInCU: 0x21B43, offset: 0x21B43, size: 0x8, addend: 0x0, symName: __ZNKSt3__121__tree_const_iteratorINS_12__value_typeIm9ConditionEEPNS_11__tree_nodeIS3_PvEElEptB7v160006Ev, symObjAddr: 0xC86C, symBinAddr: 0x10000EF3C, symSize: 0x2C }
  - { offsetInCU: 0x21B69, offset: 0x21B69, size: 0x8, addend: 0x0, symName: __ZNSt3__114pointer_traitsIPKNS_12__value_typeIm9ConditionEEE10pointer_toB7v160006ERS4_, symObjAddr: 0xC898, symBinAddr: 0x10000EF68, symSize: 0x14 }
  - { offsetInCU: 0x21B8C, offset: 0x21B8C, size: 0x8, addend: 0x0, symName: __ZNKSt3__16__treeINS_12__value_typeIm9ConditionEENS_19__map_value_compareImS3_NS_4lessImEELb1EEENS_9allocatorIS3_EEE5beginB7v160006Ev, symObjAddr: 0xC8AC, symBinAddr: 0x10000EF7C, symSize: 0x34 }
  - { offsetInCU: 0x21BB2, offset: 0x21BB2, size: 0x8, addend: 0x0, symName: __ZNKSt3__16__treeINS_12__value_typeIm9ConditionEENS_19__map_value_compareImS3_NS_4lessImEELb1EEENS_9allocatorIS3_EEE12__begin_nodeB7v160006Ev, symObjAddr: 0xC8E0, symBinAddr: 0x10000EFB0, symSize: 0x14 }
  - { offsetInCU: 0x21BD8, offset: 0x21BD8, size: 0x8, addend: 0x0, symName: __ZNSt3__121__tree_const_iteratorINS_12__value_typeIm9ConditionEEPNS_11__tree_nodeIS3_PvEElEC1B7v160006EPNS_15__tree_end_nodeIPNS_16__tree_node_baseIS5_EEEE, symObjAddr: 0xC8F4, symBinAddr: 0x10000EFC4, symSize: 0x34 }
  - { offsetInCU: 0x21C11, offset: 0x21C11, size: 0x8, addend: 0x0, symName: __ZNSt3__121__tree_const_iteratorINS_12__value_typeIm9ConditionEEPNS_11__tree_nodeIS3_PvEElEC2B7v160006EPNS_15__tree_end_nodeIPNS_16__tree_node_baseIS5_EEEE, symObjAddr: 0xC928, symBinAddr: 0x10000EFF8, symSize: 0x20 }
  - { offsetInCU: 0x21C4A, offset: 0x21C4A, size: 0x8, addend: 0x0, symName: __ZNKSt3__16__treeINS_12__value_typeIm9ConditionEENS_19__map_value_compareImS3_NS_4lessImEELb1EEENS_9allocatorIS3_EEE3endB7v160006Ev, symObjAddr: 0xC948, symBinAddr: 0x10000F018, symSize: 0x34 }
  - { offsetInCU: 0x21C70, offset: 0x21C70, size: 0x8, addend: 0x0, symName: __ZNSt3__114basic_ifstreamIcNS_11char_traitsIcEEED2Ev, symObjAddr: 0xC97C, symBinAddr: 0x10000F04C, symSize: 0x9C }
  - { offsetInCU: 0x21CAA, offset: 0x21CAA, size: 0x8, addend: 0x0, symName: __ZTv0_n24_NSt3__114basic_ifstreamIcNS_11char_traitsIcEEED1Ev, symObjAddr: 0xCA18, symBinAddr: 0x10000F0E8, symSize: 0x28 }
  - { offsetInCU: 0x21CC1, offset: 0x21CC1, size: 0x8, addend: 0x0, symName: __ZNSt3__13mapIm4PageNS_4lessImEENS_9allocatorINS_4pairIKmS1_EEEEE4findB7v160006ERS6_, symObjAddr: 0xCA40, symBinAddr: 0x10000F110, symSize: 0x40 }
  - { offsetInCU: 0x21CF6, offset: 0x21CF6, size: 0x8, addend: 0x0, symName: __ZNSt3__13mapIm4PageNS_4lessImEENS_9allocatorINS_4pairIKmS1_EEEEE3endB7v160006Ev, symObjAddr: 0xCAB0, symBinAddr: 0x10000F180, symSize: 0x38 }
  - { offsetInCU: 0x21D1C, offset: 0x21D1C, size: 0x8, addend: 0x0, symName: __ZNKSt3__114__map_iteratorINS_15__tree_iteratorINS_12__value_typeIm4PageEEPNS_11__tree_nodeIS4_PvEElEEEptB7v160006Ev, symObjAddr: 0xCAE8, symBinAddr: 0x10000F1B8, symSize: 0x2C }
  - { offsetInCU: 0x21D42, offset: 0x21D42, size: 0x8, addend: 0x0, symName: __ZNSt3__16__treeINS_12__value_typeIm4PageEENS_19__map_value_compareImS3_NS_4lessImEELb1EEENS_9allocatorIS3_EEE4findImEENS_15__tree_iteratorIS3_PNS_11__tree_nodeIS3_PvEElEERKT_, symObjAddr: 0xCB14, symBinAddr: 0x10000F1E4, symSize: 0xF8 }
  - { offsetInCU: 0x21D91, offset: 0x21D91, size: 0x8, addend: 0x0, symName: __ZNSt3__114__map_iteratorINS_15__tree_iteratorINS_12__value_typeIm4PageEEPNS_11__tree_nodeIS4_PvEElEEEC1B7v160006ES9_, symObjAddr: 0xCC0C, symBinAddr: 0x10000F2DC, symSize: 0x34 }
  - { offsetInCU: 0x21DCA, offset: 0x21DCA, size: 0x8, addend: 0x0, symName: __ZNSt3__16__treeINS_12__value_typeIm4PageEENS_19__map_value_compareImS3_NS_4lessImEELb1EEENS_9allocatorIS3_EEE13__lower_boundImEENS_15__tree_iteratorIS3_PNS_11__tree_nodeIS3_PvEElEERKT_SG_PNS_15__tree_end_nodeIPNS_16__tree_node_baseISE_EEEE, symObjAddr: 0xCC40, symBinAddr: 0x10000F310, symSize: 0xA4 }
  - { offsetInCU: 0x21E28, offset: 0x21E28, size: 0x8, addend: 0x0, symName: __ZNSt3__16__treeINS_12__value_typeIm4PageEENS_19__map_value_compareImS3_NS_4lessImEELb1EEENS_9allocatorIS3_EEE3endB7v160006Ev, symObjAddr: 0xCD18, symBinAddr: 0x10000F3E8, symSize: 0x34 }
  - { offsetInCU: 0x21E4E, offset: 0x21E4E, size: 0x8, addend: 0x0, symName: __ZNKSt3__115__tree_iteratorINS_12__value_typeIm4PageEEPNS_11__tree_nodeIS3_PvEElEdeB7v160006Ev, symObjAddr: 0xCD4C, symBinAddr: 0x10000F41C, symSize: 0x28 }
  - { offsetInCU: 0x21E74, offset: 0x21E74, size: 0x8, addend: 0x0, symName: __ZNSt3__115__tree_iteratorINS_12__value_typeIm4PageEEPNS_11__tree_nodeIS3_PvEElEC1B7v160006EPNS_15__tree_end_nodeIPNS_16__tree_node_baseIS5_EEEE, symObjAddr: 0xCD74, symBinAddr: 0x10000F444, symSize: 0x34 }
  - { offsetInCU: 0x21EAD, offset: 0x21EAD, size: 0x8, addend: 0x0, symName: __ZNSt3__115__tree_iteratorINS_12__value_typeIm4PageEEPNS_11__tree_nodeIS3_PvEElEC2B7v160006EPNS_15__tree_end_nodeIPNS_16__tree_node_baseIS5_EEEE, symObjAddr: 0xCDA8, symBinAddr: 0x10000F478, symSize: 0x20 }
  - { offsetInCU: 0x21EE6, offset: 0x21EE6, size: 0x8, addend: 0x0, symName: __ZNKSt3__115__tree_iteratorINS_12__value_typeIm4PageEEPNS_11__tree_nodeIS3_PvEElE8__get_npB7v160006Ev, symObjAddr: 0xCDF8, symBinAddr: 0x10000F4C8, symSize: 0x18 }
  - { offsetInCU: 0x21F0C, offset: 0x21F0C, size: 0x8, addend: 0x0, symName: __ZNSt3__114__map_iteratorINS_15__tree_iteratorINS_12__value_typeIm4PageEEPNS_11__tree_nodeIS4_PvEElEEEC2B7v160006ES9_, symObjAddr: 0xCE10, symBinAddr: 0x10000F4E0, symSize: 0x20 }
  - { offsetInCU: 0x21F45, offset: 0x21F45, size: 0x8, addend: 0x0, symName: __ZNSt3__114pointer_traitsIPNS_4pairIKm4PageEEE10pointer_toB7v160006ERS4_, symObjAddr: 0xCE30, symBinAddr: 0x10000F500, symSize: 0x14 }
  - { offsetInCU: 0x21F68, offset: 0x21F68, size: 0x8, addend: 0x0, symName: __ZNKSt3__115__tree_iteratorINS_12__value_typeIm4PageEEPNS_11__tree_nodeIS3_PvEElEptB7v160006Ev, symObjAddr: 0xCE44, symBinAddr: 0x10000F514, symSize: 0x2C }
  - { offsetInCU: 0x21F8E, offset: 0x21F8E, size: 0x8, addend: 0x0, symName: __ZNSt3__114pointer_traitsIPNS_12__value_typeIm4PageEEE10pointer_toB7v160006ERS3_, symObjAddr: 0xCE70, symBinAddr: 0x10000F540, symSize: 0x14 }
  - { offsetInCU: 0x21FB1, offset: 0x21FB1, size: 0x8, addend: 0x0, symName: __ZNSt3__16vectorINS_4pairImNS_12basic_stringIcNS_11char_traitsIcEENS_9allocatorIcEEEEEENS5_IS8_EEE9push_backB7v160006EOS8_, symObjAddr: 0xCE84, symBinAddr: 0x10000F554, symSize: 0x6C }
  - { offsetInCU: 0x21FE8, offset: 0x21FE8, size: 0x8, addend: 0x0, symName: __ZNSt3__16vectorINS_4pairImNS_12basic_stringIcNS_11char_traitsIcEENS_9allocatorIcEEEEEENS5_IS8_EEE22__construct_one_at_endB7v160006IJS8_EEEvDpOT_, symObjAddr: 0xCF30, symBinAddr: 0x10000F600, symSize: 0x98 }
  - { offsetInCU: 0x22037, offset: 0x22037, size: 0x8, addend: 0x0, symName: __ZNSt3__16vectorINS_4pairImNS_12basic_stringIcNS_11char_traitsIcEENS_9allocatorIcEEEEEENS5_IS8_EEE21__push_back_slow_pathIS8_EEvOT_, symObjAddr: 0xCFC8, symBinAddr: 0x10000F698, symSize: 0xE0 }
  - { offsetInCU: 0x22095, offset: 0x22095, size: 0x8, addend: 0x0, symName: __ZNSt3__116allocator_traitsINS_9allocatorINS_4pairImNS_12basic_stringIcNS_11char_traitsIcEENS1_IcEEEEEEEEE9constructB7v160006IS8_JS8_EvEEvRS9_PT_DpOT0_, symObjAddr: 0xD0A8, symBinAddr: 0x10000F778, symSize: 0x34 }
  - { offsetInCU: 0x220EC, offset: 0x220EC, size: 0x8, addend: 0x0, symName: __ZNSt3__19allocatorINS_4pairImNS_12basic_stringIcNS_11char_traitsIcEENS0_IcEEEEEEE9constructB7v160006IS7_JS7_EEEvPT_DpOT0_, symObjAddr: 0xD0DC, symBinAddr: 0x10000F7AC, symSize: 0x30 }
  - { offsetInCU: 0x22142, offset: 0x22142, size: 0x8, addend: 0x0, symName: __ZNSt3__14pairImNS_12basic_stringIcNS_11char_traitsIcEENS_9allocatorIcEEEEEC1EOS7_, symObjAddr: 0xD10C, symBinAddr: 0x10000F7DC, symSize: 0x34 }
  - { offsetInCU: 0x22176, offset: 0x22176, size: 0x8, addend: 0x0, symName: __ZNSt3__14pairImNS_12basic_stringIcNS_11char_traitsIcEENS_9allocatorIcEEEEEC2EOS7_, symObjAddr: 0xD140, symBinAddr: 0x10000F810, symSize: 0x48 }
  - { offsetInCU: 0x221AA, offset: 0x221AA, size: 0x8, addend: 0x0, symName: __ZNSt3__114__split_bufferINS_4pairImNS_12basic_stringIcNS_11char_traitsIcEENS_9allocatorIcEEEEEERNS5_IS8_EEEC1EmmSA_, symObjAddr: 0xD188, symBinAddr: 0x10000F858, symSize: 0x44 }
  - { offsetInCU: 0x22200, offset: 0x22200, size: 0x8, addend: 0x0, symName: __ZNSt3__114__split_bufferINS_4pairImNS_12basic_stringIcNS_11char_traitsIcEENS_9allocatorIcEEEEEERNS5_IS8_EEED1Ev, symObjAddr: 0xD2E4, symBinAddr: 0x10000F9B4, symSize: 0x2C }
  - { offsetInCU: 0x2222C, offset: 0x2222C, size: 0x8, addend: 0x0, symName: __ZNSt3__114__split_bufferINS_4pairImNS_12basic_stringIcNS_11char_traitsIcEENS_9allocatorIcEEEEEERNS5_IS8_EEEC2EmmSA_, symObjAddr: 0xD310, symBinAddr: 0x10000F9E0, symSize: 0xD4 }
  - { offsetInCU: 0x2229F, offset: 0x2229F, size: 0x8, addend: 0x0, symName: __ZNSt3__117__compressed_pairIPNS_4pairImNS_12basic_stringIcNS_11char_traitsIcEENS_9allocatorIcEEEEEERNS5_IS8_EEEC1B7v160006IDnSB_EEOT_OT0_, symObjAddr: 0xD3E4, symBinAddr: 0x10000FAB4, symSize: 0x3C }
  - { offsetInCU: 0x222F7, offset: 0x222F7, size: 0x8, addend: 0x0, symName: __ZNSt3__114__split_bufferINS_4pairImNS_12basic_stringIcNS_11char_traitsIcEENS_9allocatorIcEEEEEERNS5_IS8_EEE7__allocB7v160006Ev, symObjAddr: 0xD420, symBinAddr: 0x10000FAF0, symSize: 0x28 }
  - { offsetInCU: 0x2231D, offset: 0x2231D, size: 0x8, addend: 0x0, symName: __ZNSt3__114__split_bufferINS_4pairImNS_12basic_stringIcNS_11char_traitsIcEENS_9allocatorIcEEEEEERNS5_IS8_EEE9__end_capB7v160006Ev, symObjAddr: 0xD448, symBinAddr: 0x10000FB18, symSize: 0x28 }
  - { offsetInCU: 0x22343, offset: 0x22343, size: 0x8, addend: 0x0, symName: __ZNSt3__117__compressed_pairIPNS_4pairImNS_12basic_stringIcNS_11char_traitsIcEENS_9allocatorIcEEEEEERNS5_IS8_EEEC2B7v160006IDnSB_EEOT_OT0_, symObjAddr: 0xD470, symBinAddr: 0x10000FB40, symSize: 0x48 }
  - { offsetInCU: 0x2239B, offset: 0x2239B, size: 0x8, addend: 0x0, symName: __ZNSt3__122__compressed_pair_elemIRNS_9allocatorINS_4pairImNS_12basic_stringIcNS_11char_traitsIcEENS1_IcEEEEEEEELi1ELb0EEC2B7v160006ISA_vEEOT_, symObjAddr: 0xD4B8, symBinAddr: 0x10000FB88, symSize: 0x20 }
  - { offsetInCU: 0x223DD, offset: 0x223DD, size: 0x8, addend: 0x0, symName: __ZNSt3__117__compressed_pairIPNS_4pairImNS_12basic_stringIcNS_11char_traitsIcEENS_9allocatorIcEEEEEERNS5_IS8_EEE6secondB7v160006Ev, symObjAddr: 0xD4D8, symBinAddr: 0x10000FBA8, symSize: 0x28 }
  - { offsetInCU: 0x22403, offset: 0x22403, size: 0x8, addend: 0x0, symName: __ZNSt3__122__compressed_pair_elemIRNS_9allocatorINS_4pairImNS_12basic_stringIcNS_11char_traitsIcEENS1_IcEEEEEEEELi1ELb0EE5__getB7v160006Ev, symObjAddr: 0xD500, symBinAddr: 0x10000FBD0, symSize: 0x18 }
  - { offsetInCU: 0x22429, offset: 0x22429, size: 0x8, addend: 0x0, symName: __ZNSt3__117__compressed_pairIPNS_4pairImNS_12basic_stringIcNS_11char_traitsIcEENS_9allocatorIcEEEEEERNS5_IS8_EEE5firstB7v160006Ev, symObjAddr: 0xD518, symBinAddr: 0x10000FBE8, symSize: 0x24 }
  - { offsetInCU: 0x2244F, offset: 0x2244F, size: 0x8, addend: 0x0, symName: __ZNSt3__129_AllocatorDestroyRangeReverseINS_9allocatorINS_4pairImNS_12basic_stringIcNS_11char_traitsIcEENS1_IcEEEEEEEENS_16reverse_iteratorIPS8_EEEC1B7v160006ERS9_RSC_SF_, symObjAddr: 0xD6E8, symBinAddr: 0x10000FDB8, symSize: 0x44 }
  - { offsetInCU: 0x224A6, offset: 0x224A6, size: 0x8, addend: 0x0, symName: __ZNSt3__116allocator_traitsINS_9allocatorINS_4pairImNS_12basic_stringIcNS_11char_traitsIcEENS1_IcEEEEEEEEE9constructB7v160006IS8_JRKS8_EvEEvRS9_PT_DpOT0_, symObjAddr: 0xD72C, symBinAddr: 0x10000FDFC, symSize: 0x34 }
  - { offsetInCU: 0x224FD, offset: 0x224FD, size: 0x8, addend: 0x0, symName: __ZNSt3__128__exception_guard_exceptionsINS_29_AllocatorDestroyRangeReverseINS_9allocatorINS_4pairImNS_12basic_stringIcNS_11char_traitsIcEENS2_IcEEEEEEEENS_16reverse_iteratorIPS9_EEEEE10__completeB7v160006Ev, symObjAddr: 0xD760, symBinAddr: 0x10000FE30, symSize: 0x1C }
  - { offsetInCU: 0x22523, offset: 0x22523, size: 0x8, addend: 0x0, symName: __ZNSt3__128__exception_guard_exceptionsINS_29_AllocatorDestroyRangeReverseINS_9allocatorINS_4pairImNS_12basic_stringIcNS_11char_traitsIcEENS2_IcEEEEEEEENS_16reverse_iteratorIPS9_EEEEED1B7v160006Ev, symObjAddr: 0xD77C, symBinAddr: 0x10000FE4C, symSize: 0x2C }
  - { offsetInCU: 0x2254D, offset: 0x2254D, size: 0x8, addend: 0x0, symName: __ZNSt3__128__exception_guard_exceptionsINS_29_AllocatorDestroyRangeReverseINS_9allocatorINS_4pairImNS_12basic_stringIcNS_11char_traitsIcEENS2_IcEEEEEEEENS_16reverse_iteratorIPS9_EEEEEC1B7v160006ESE_, symObjAddr: 0xD7A8, symBinAddr: 0x10000FE78, symSize: 0x34 }
  - { offsetInCU: 0x22586, offset: 0x22586, size: 0x8, addend: 0x0, symName: __ZNSt3__128__exception_guard_exceptionsINS_29_AllocatorDestroyRangeReverseINS_9allocatorINS_4pairImNS_12basic_stringIcNS_11char_traitsIcEENS2_IcEEEEEEEENS_16reverse_iteratorIPS9_EEEEEC2B7v160006ESE_, symObjAddr: 0xD7DC, symBinAddr: 0x10000FEAC, symSize: 0x30 }
  - { offsetInCU: 0x225BF, offset: 0x225BF, size: 0x8, addend: 0x0, symName: __ZNSt3__129_AllocatorDestroyRangeReverseINS_9allocatorINS_4pairImNS_12basic_stringIcNS_11char_traitsIcEENS1_IcEEEEEEEENS_16reverse_iteratorIPS8_EEEC2B7v160006ERS9_RSC_SF_, symObjAddr: 0xD80C, symBinAddr: 0x10000FEDC, symSize: 0x38 }
  - { offsetInCU: 0x22616, offset: 0x22616, size: 0x8, addend: 0x0, symName: __ZNSt3__19allocatorINS_4pairImNS_12basic_stringIcNS_11char_traitsIcEENS0_IcEEEEEEE9constructB7v160006IS7_JRKS7_EEEvPT_DpOT0_, symObjAddr: 0xD844, symBinAddr: 0x10000FF14, symSize: 0x30 }
  - { offsetInCU: 0x2266C, offset: 0x2266C, size: 0x8, addend: 0x0, symName: __ZNSt3__128__exception_guard_exceptionsINS_29_AllocatorDestroyRangeReverseINS_9allocatorINS_4pairImNS_12basic_stringIcNS_11char_traitsIcEENS2_IcEEEEEEEENS_16reverse_iteratorIPS9_EEEEED2B7v160006Ev, symObjAddr: 0xD874, symBinAddr: 0x10000FF44, symSize: 0x48 }
  - { offsetInCU: 0x22696, offset: 0x22696, size: 0x8, addend: 0x0, symName: __ZNKSt3__129_AllocatorDestroyRangeReverseINS_9allocatorINS_4pairImNS_12basic_stringIcNS_11char_traitsIcEENS1_IcEEEEEEEENS_16reverse_iteratorIPS8_EEEclB7v160006Ev, symObjAddr: 0xD8BC, symBinAddr: 0x10000FF8C, symSize: 0xB4 }
  - { offsetInCU: 0x226BD, offset: 0x226BD, size: 0x8, addend: 0x0, symName: __ZNSt3__116reverse_iteratorINS0_IPNS_4pairImNS_12basic_stringIcNS_11char_traitsIcEENS_9allocatorIcEEEEEEEEEC1B7v160006ESA_, symObjAddr: 0xD9E0, symBinAddr: 0x1000100B0, symSize: 0x3C }
  - { offsetInCU: 0x226F5, offset: 0x226F5, size: 0x8, addend: 0x0, symName: __ZNSt3__116reverse_iteratorINS0_IPNS_4pairImNS_12basic_stringIcNS_11char_traitsIcEENS_9allocatorIcEEEEEEEEEppB7v160006Ev, symObjAddr: 0xDAA0, symBinAddr: 0x100010170, symSize: 0x30 }
  - { offsetInCU: 0x2271B, offset: 0x2271B, size: 0x8, addend: 0x0, symName: __ZNKSt3__116reverse_iteratorINS0_IPNS_4pairImNS_12basic_stringIcNS_11char_traitsIcEENS_9allocatorIcEEEEEEEEE4baseB7v160006Ev, symObjAddr: 0xDAD0, symBinAddr: 0x1000101A0, symSize: 0x24 }
  - { offsetInCU: 0x22746, offset: 0x22746, size: 0x8, addend: 0x0, symName: __ZNSt3__119__to_address_helperINS_16reverse_iteratorINS1_IPNS_4pairImNS_12basic_stringIcNS_11char_traitsIcEENS_9allocatorIcEEEEEEEEEEvE6__callB7v160006ERKSC_, symObjAddr: 0xDAF4, symBinAddr: 0x1000101C4, symSize: 0x4C }
  - { offsetInCU: 0x22769, offset: 0x22769, size: 0x8, addend: 0x0, symName: __ZNKSt3__116reverse_iteratorINS0_IPNS_4pairImNS_12basic_stringIcNS_11char_traitsIcEENS_9allocatorIcEEEEEEEEEptB7v160006Ev, symObjAddr: 0xDB40, symBinAddr: 0x100010210, symSize: 0x24 }
  - { offsetInCU: 0x2278F, offset: 0x2278F, size: 0x8, addend: 0x0, symName: __ZNKSt3__116reverse_iteratorINS0_IPNS_4pairImNS_12basic_stringIcNS_11char_traitsIcEENS_9allocatorIcEEEEEEEEEdeB7v160006Ev, symObjAddr: 0xDB64, symBinAddr: 0x100010234, symSize: 0x34 }
  - { offsetInCU: 0x227C3, offset: 0x227C3, size: 0x8, addend: 0x0, symName: __ZNSt3__116reverse_iteratorIPNS_4pairImNS_12basic_stringIcNS_11char_traitsIcEENS_9allocatorIcEEEEEEEmmB7v160006Ev, symObjAddr: 0xDB98, symBinAddr: 0x100010268, symSize: 0x20 }
  - { offsetInCU: 0x227E9, offset: 0x227E9, size: 0x8, addend: 0x0, symName: __ZNSt3__116reverse_iteratorINS0_IPNS_4pairImNS_12basic_stringIcNS_11char_traitsIcEENS_9allocatorIcEEEEEEEEEC2B7v160006ESA_, symObjAddr: 0xDBB8, symBinAddr: 0x100010288, symSize: 0x2C }
  - { offsetInCU: 0x22821, offset: 0x22821, size: 0x8, addend: 0x0, symName: __ZNSt3__114__split_bufferINS_4pairImNS_12basic_stringIcNS_11char_traitsIcEENS_9allocatorIcEEEEEERNS5_IS8_EEED2Ev, symObjAddr: 0xDBE4, symBinAddr: 0x1000102B4, symSize: 0x80 }
  - { offsetInCU: 0x2284D, offset: 0x2284D, size: 0x8, addend: 0x0, symName: __ZNSt3__114__split_bufferINS_4pairImNS_12basic_stringIcNS_11char_traitsIcEENS_9allocatorIcEEEEEERNS5_IS8_EEE5clearB7v160006Ev, symObjAddr: 0xDC64, symBinAddr: 0x100010334, symSize: 0x28 }
  - { offsetInCU: 0x22873, offset: 0x22873, size: 0x8, addend: 0x0, symName: __ZNKSt3__114__split_bufferINS_4pairImNS_12basic_stringIcNS_11char_traitsIcEENS_9allocatorIcEEEEEERNS5_IS8_EEE8capacityB7v160006Ev, symObjAddr: 0xDC8C, symBinAddr: 0x10001035C, symSize: 0x40 }
  - { offsetInCU: 0x22899, offset: 0x22899, size: 0x8, addend: 0x0, symName: __ZNSt3__114__split_bufferINS_4pairImNS_12basic_stringIcNS_11char_traitsIcEENS_9allocatorIcEEEEEERNS5_IS8_EEE17__destruct_at_endB7v160006EPS8_, symObjAddr: 0xDCCC, symBinAddr: 0x10001039C, symSize: 0x2C }
  - { offsetInCU: 0x228CD, offset: 0x228CD, size: 0x8, addend: 0x0, symName: __ZNSt3__114__split_bufferINS_4pairImNS_12basic_stringIcNS_11char_traitsIcEENS_9allocatorIcEEEEEERNS5_IS8_EEE17__destruct_at_endB7v160006EPS8_NS_17integral_constantIbLb0EEE, symObjAddr: 0xDCF8, symBinAddr: 0x1000103C8, symSize: 0x94 }
  - { offsetInCU: 0x2290D, offset: 0x2290D, size: 0x8, addend: 0x0, symName: __ZNKSt3__114__split_bufferINS_4pairImNS_12basic_stringIcNS_11char_traitsIcEENS_9allocatorIcEEEEEERNS5_IS8_EEE9__end_capB7v160006Ev, symObjAddr: 0xDD8C, symBinAddr: 0x10001045C, symSize: 0x28 }
  - { offsetInCU: 0x22933, offset: 0x22933, size: 0x8, addend: 0x0, symName: __ZNKSt3__117__compressed_pairIPNS_4pairImNS_12basic_stringIcNS_11char_traitsIcEENS_9allocatorIcEEEEEERNS5_IS8_EEE5firstB7v160006Ev, symObjAddr: 0xDDB4, symBinAddr: 0x100010484, symSize: 0x24 }
  - { offsetInCU: 0x22959, offset: 0x22959, size: 0x8, addend: 0x0, symName: __ZNSt3__14pairImNS_12basic_stringIcNS_11char_traitsIcEENS_9allocatorIcEEEEEC1B7v160006ERKmRKS6_, symObjAddr: 0xDDD8, symBinAddr: 0x1000104A8, symSize: 0x3C }
  - { offsetInCU: 0x2299F, offset: 0x2299F, size: 0x8, addend: 0x0, symName: __ZNSt3__14pairImNS_12basic_stringIcNS_11char_traitsIcEENS_9allocatorIcEEEEEC2B7v160006ERKmRKS6_, symObjAddr: 0xDE14, symBinAddr: 0x1000104E4, symSize: 0x48 }
  - { offsetInCU: 0x229E5, offset: 0x229E5, size: 0x8, addend: 0x0, symName: __ZNSt3__13setImNS_4lessImEENS_9allocatorImEEEC1B7v160006Ev, symObjAddr: 0xDE5C, symBinAddr: 0x10001052C, symSize: 0x2C }
  - { offsetInCU: 0x22A0F, offset: 0x22A0F, size: 0x8, addend: 0x0, symName: __ZNKSt3__13mapIm4PageNS_4lessImEENS_9allocatorINS_4pairIKmS1_EEEEE5beginB7v160006Ev, symObjAddr: 0xDE88, symBinAddr: 0x100010558, symSize: 0x38 }
  - { offsetInCU: 0x22A35, offset: 0x22A35, size: 0x8, addend: 0x0, symName: __ZNKSt3__13mapIm4PageNS_4lessImEENS_9allocatorINS_4pairIKmS1_EEEEE3endB7v160006Ev, symObjAddr: 0xDEF0, symBinAddr: 0x1000105C0, symSize: 0x38 }
  - { offsetInCU: 0x22A5B, offset: 0x22A5B, size: 0x8, addend: 0x0, symName: __ZNKSt3__120__map_const_iteratorINS_21__tree_const_iteratorINS_12__value_typeIm4PageEEPNS_11__tree_nodeIS4_PvEElEEEptB7v160006Ev, symObjAddr: 0xDF28, symBinAddr: 0x1000105F8, symSize: 0x2C }
  - { offsetInCU: 0x22A81, offset: 0x22A81, size: 0x8, addend: 0x0, symName: __ZNK4Page10getChoicesEv, symObjAddr: 0xDF54, symBinAddr: 0x100010624, symSize: 0x18 }
  - { offsetInCU: 0x22AA7, offset: 0x22AA7, size: 0x8, addend: 0x0, symName: __ZNSt3__13setImNS_4lessImEENS_9allocatorImEEE6insertB7v160006ERKm, symObjAddr: 0xDF6C, symBinAddr: 0x10001063C, symSize: 0x4C }
  - { offsetInCU: 0x22ADC, offset: 0x22ADC, size: 0x8, addend: 0x0, symName: __ZNKSt3__16vectorINS_4pairImNS_12basic_stringIcNS_11char_traitsIcEENS_9allocatorIcEEEEEENS5_IS8_EEEixB7v160006Em, symObjAddr: 0xDFB8, symBinAddr: 0x100010688, symSize: 0x24 }
  - { offsetInCU: 0x22B13, offset: 0x22B13, size: 0x8, addend: 0x0, symName: __ZNSt3__120__map_const_iteratorINS_21__tree_const_iteratorINS_12__value_typeIm4PageEEPNS_11__tree_nodeIS4_PvEElEEEppB7v160006Ev, symObjAddr: 0xDFDC, symBinAddr: 0x1000106AC, symSize: 0x2C }
  - { offsetInCU: 0x22B39, offset: 0x22B39, size: 0x8, addend: 0x0, symName: __ZNSt3__13setImNS_4lessImEENS_9allocatorImEEE5beginB7v160006Ev, symObjAddr: 0xE008, symBinAddr: 0x1000106D8, symSize: 0x38 }
  - { offsetInCU: 0x22B5F, offset: 0x22B5F, size: 0x8, addend: 0x0, symName: __ZNSt3__13setImNS_4lessImEENS_9allocatorImEEE3endB7v160006Ev, symObjAddr: 0xE074, symBinAddr: 0x100010744, symSize: 0x38 }
  - { offsetInCU: 0x22B85, offset: 0x22B85, size: 0x8, addend: 0x0, symName: __ZNKSt3__13mapIm4PageNS_4lessImEENS_9allocatorINS_4pairIKmS1_EEEEE4findB7v160006ERS6_, symObjAddr: 0xE0DC, symBinAddr: 0x1000107AC, symSize: 0x40 }
  - { offsetInCU: 0x22BBA, offset: 0x22BBA, size: 0x8, addend: 0x0, symName: __ZNKSt3__121__tree_const_iteratorImPNS_11__tree_nodeImPvEElEdeB7v160006Ev, symObjAddr: 0xE11C, symBinAddr: 0x1000107EC, symSize: 0x28 }
  - { offsetInCU: 0x22BE0, offset: 0x22BE0, size: 0x8, addend: 0x0, symName: __ZNSt3__121__tree_const_iteratorImPNS_11__tree_nodeImPvEElEppB7v160006Ev, symObjAddr: 0xE144, symBinAddr: 0x100010814, symSize: 0x38 }
  - { offsetInCU: 0x22C06, offset: 0x22C06, size: 0x8, addend: 0x0, symName: __ZNSt3__13setImNS_4lessImEENS_9allocatorImEEE4findB7v160006ERKm, symObjAddr: 0xE1AC, symBinAddr: 0x10001087C, symSize: 0x40 }
  - { offsetInCU: 0x22C3B, offset: 0x22C3B, size: 0x8, addend: 0x0, symName: __ZNSt3__13setImNS_4lessImEENS_9allocatorImEEED1B7v160006Ev, symObjAddr: 0xE1EC, symBinAddr: 0x1000108BC, symSize: 0x2C }
  - { offsetInCU: 0x22C65, offset: 0x22C65, size: 0x8, addend: 0x0, symName: __ZNSt3__13setImNS_4lessImEENS_9allocatorImEEEC2B7v160006Ev, symObjAddr: 0xE218, symBinAddr: 0x1000108E8, symSize: 0x30 }
  - { offsetInCU: 0x22C8F, offset: 0x22C8F, size: 0x8, addend: 0x0, symName: __ZNSt3__16__treeImNS_4lessImEENS_9allocatorImEEEC1ERKS2_, symObjAddr: 0xE248, symBinAddr: 0x100010918, symSize: 0x34 }
  - { offsetInCU: 0x22CCA, offset: 0x22CCA, size: 0x8, addend: 0x0, symName: __ZNSt3__16__treeImNS_4lessImEENS_9allocatorImEEEC2ERKS2_, symObjAddr: 0xE27C, symBinAddr: 0x10001094C, symSize: 0x70 }
  - { offsetInCU: 0x22D05, offset: 0x22D05, size: 0x8, addend: 0x0, symName: __ZNSt3__117__compressed_pairINS_15__tree_end_nodeIPNS_16__tree_node_baseIPvEEEENS_9allocatorINS_11__tree_nodeImS3_EEEEEC1B7v160006ILb1EvEEv, symObjAddr: 0xE2EC, symBinAddr: 0x1000109BC, symSize: 0x2C }
  - { offsetInCU: 0x22D3A, offset: 0x22D3A, size: 0x8, addend: 0x0, symName: __ZNSt3__117__compressed_pairImNS_4lessImEEEC1B7v160006IiRKS2_EEOT_OT0_, symObjAddr: 0xE318, symBinAddr: 0x1000109E8, symSize: 0x3C }
  - { offsetInCU: 0x22D92, offset: 0x22D92, size: 0x8, addend: 0x0, symName: __ZNSt3__16__treeImNS_4lessImEENS_9allocatorImEEE10__end_nodeB7v160006Ev, symObjAddr: 0xE354, symBinAddr: 0x100010A24, symSize: 0x2C }
  - { offsetInCU: 0x22DB8, offset: 0x22DB8, size: 0x8, addend: 0x0, symName: __ZNSt3__16__treeImNS_4lessImEENS_9allocatorImEEE12__begin_nodeB7v160006Ev, symObjAddr: 0xE380, symBinAddr: 0x100010A50, symSize: 0x14 }
  - { offsetInCU: 0x22DDE, offset: 0x22DDE, size: 0x8, addend: 0x0, symName: __ZNSt3__117__compressed_pairINS_15__tree_end_nodeIPNS_16__tree_node_baseIPvEEEENS_9allocatorINS_11__tree_nodeImS3_EEEEEC2B7v160006ILb1EvEEv, symObjAddr: 0xE394, symBinAddr: 0x100010A64, symSize: 0x34 }
  - { offsetInCU: 0x22E13, offset: 0x22E13, size: 0x8, addend: 0x0, symName: __ZNSt3__122__compressed_pair_elemINS_9allocatorINS_11__tree_nodeImPvEEEELi1ELb1EEC2B7v160006ENS_16__value_init_tagE, symObjAddr: 0xE3C8, symBinAddr: 0x100010A98, symSize: 0x2C }
  - { offsetInCU: 0x22E47, offset: 0x22E47, size: 0x8, addend: 0x0, symName: __ZNSt3__19allocatorINS_11__tree_nodeImPvEEEC2B7v160006Ev, symObjAddr: 0xE3F4, symBinAddr: 0x100010AC4, symSize: 0x2C }
  - { offsetInCU: 0x22E71, offset: 0x22E71, size: 0x8, addend: 0x0, symName: __ZNSt3__116__non_trivial_ifILb1ENS_9allocatorINS_11__tree_nodeImPvEEEEEC2B7v160006Ev, symObjAddr: 0xE420, symBinAddr: 0x100010AF0, symSize: 0x14 }
  - { offsetInCU: 0x22E9B, offset: 0x22E9B, size: 0x8, addend: 0x0, symName: __ZNSt3__117__compressed_pairImNS_4lessImEEEC2B7v160006IiRKS2_EEOT_OT0_, symObjAddr: 0xE434, symBinAddr: 0x100010B04, symSize: 0x44 }
  - { offsetInCU: 0x22EF3, offset: 0x22EF3, size: 0x8, addend: 0x0, symName: __ZNSt3__122__compressed_pair_elemINS_4lessImEELi1ELb1EEC2B7v160006IRKS2_vEEOT_, symObjAddr: 0xE478, symBinAddr: 0x100010B48, symSize: 0x18 }
  - { offsetInCU: 0x22F35, offset: 0x22F35, size: 0x8, addend: 0x0, symName: __ZNSt3__117__compressed_pairINS_15__tree_end_nodeIPNS_16__tree_node_baseIPvEEEENS_9allocatorINS_11__tree_nodeImS3_EEEEE5firstB7v160006Ev, symObjAddr: 0xE490, symBinAddr: 0x100010B60, symSize: 0x24 }
  - { offsetInCU: 0x22F5B, offset: 0x22F5B, size: 0x8, addend: 0x0, symName: __ZNKSt3__16__treeINS_12__value_typeIm4PageEENS_19__map_value_compareImS3_NS_4lessImEELb1EEENS_9allocatorIS3_EEE5beginB7v160006Ev, symObjAddr: 0xE4B4, symBinAddr: 0x100010B84, symSize: 0x34 }
  - { offsetInCU: 0x22F81, offset: 0x22F81, size: 0x8, addend: 0x0, symName: __ZNSt3__120__map_const_iteratorINS_21__tree_const_iteratorINS_12__value_typeIm4PageEEPNS_11__tree_nodeIS4_PvEElEEEC1B7v160006ES9_, symObjAddr: 0xE4E8, symBinAddr: 0x100010BB8, symSize: 0x34 }
  - { offsetInCU: 0x22FBA, offset: 0x22FBA, size: 0x8, addend: 0x0, symName: __ZNKSt3__16__treeINS_12__value_typeIm4PageEENS_19__map_value_compareImS3_NS_4lessImEELb1EEENS_9allocatorIS3_EEE12__begin_nodeB7v160006Ev, symObjAddr: 0xE51C, symBinAddr: 0x100010BEC, symSize: 0x14 }
  - { offsetInCU: 0x22FE0, offset: 0x22FE0, size: 0x8, addend: 0x0, symName: __ZNSt3__121__tree_const_iteratorINS_12__value_typeIm4PageEEPNS_11__tree_nodeIS3_PvEElEC1B7v160006EPNS_15__tree_end_nodeIPNS_16__tree_node_baseIS5_EEEE, symObjAddr: 0xE530, symBinAddr: 0x100010C00, symSize: 0x34 }
  - { offsetInCU: 0x23019, offset: 0x23019, size: 0x8, addend: 0x0, symName: __ZNSt3__121__tree_const_iteratorINS_12__value_typeIm4PageEEPNS_11__tree_nodeIS3_PvEElEC2B7v160006EPNS_15__tree_end_nodeIPNS_16__tree_node_baseIS5_EEEE, symObjAddr: 0xE564, symBinAddr: 0x100010C34, symSize: 0x20 }
  - { offsetInCU: 0x23052, offset: 0x23052, size: 0x8, addend: 0x0, symName: __ZNSt3__120__map_const_iteratorINS_21__tree_const_iteratorINS_12__value_typeIm4PageEEPNS_11__tree_nodeIS4_PvEElEEEC2B7v160006ES9_, symObjAddr: 0xE584, symBinAddr: 0x100010C54, symSize: 0x20 }
  - { offsetInCU: 0x2308B, offset: 0x2308B, size: 0x8, addend: 0x0, symName: __ZNKSt3__16__treeINS_12__value_typeIm4PageEENS_19__map_value_compareImS3_NS_4lessImEELb1EEENS_9allocatorIS3_EEE3endB7v160006Ev, symObjAddr: 0xE608, symBinAddr: 0x100010CD8, symSize: 0x34 }
  - { offsetInCU: 0x230B1, offset: 0x230B1, size: 0x8, addend: 0x0, symName: __ZNSt3__114pointer_traitsIPKNS_4pairIKm4PageEEE10pointer_toB7v160006ERS5_, symObjAddr: 0xE63C, symBinAddr: 0x100010D0C, symSize: 0x14 }
  - { offsetInCU: 0x230D4, offset: 0x230D4, size: 0x8, addend: 0x0, symName: __ZNKSt3__121__tree_const_iteratorINS_12__value_typeIm4PageEEPNS_11__tree_nodeIS3_PvEElEptB7v160006Ev, symObjAddr: 0xE650, symBinAddr: 0x100010D20, symSize: 0x2C }
  - { offsetInCU: 0x230FA, offset: 0x230FA, size: 0x8, addend: 0x0, symName: __ZNSt3__114pointer_traitsIPKNS_12__value_typeIm4PageEEE10pointer_toB7v160006ERS4_, symObjAddr: 0xE67C, symBinAddr: 0x100010D4C, symSize: 0x14 }
  - { offsetInCU: 0x2311D, offset: 0x2311D, size: 0x8, addend: 0x0, symName: __ZNKSt3__121__tree_const_iteratorINS_12__value_typeIm4PageEEPNS_11__tree_nodeIS3_PvEElE8__get_npB7v160006Ev, symObjAddr: 0xE690, symBinAddr: 0x100010D60, symSize: 0x18 }
  - { offsetInCU: 0x23143, offset: 0x23143, size: 0x8, addend: 0x0, symName: __ZNSt3__16__treeImNS_4lessImEENS_9allocatorImEEE15__insert_uniqueB7v160006ERKm, symObjAddr: 0xE6A8, symBinAddr: 0x100010D78, symSize: 0x50 }
  - { offsetInCU: 0x23178, offset: 0x23178, size: 0x8, addend: 0x0, symName: __ZNSt3__14pairINS_21__tree_const_iteratorImPNS_11__tree_nodeImPvEElEEbEC1B7v160006INS_15__tree_iteratorImS5_lEEbEERKNS0_IT_T0_EE, symObjAddr: 0xE6F8, symBinAddr: 0x100010DC8, symSize: 0x34 }
  - { offsetInCU: 0x231C2, offset: 0x231C2, size: 0x8, addend: 0x0, symName: __ZNSt3__16__treeImNS_4lessImEENS_9allocatorImEEE25__emplace_unique_key_argsImJRKmEEENS_4pairINS_15__tree_iteratorImPNS_11__tree_nodeImPvEElEEbEERKT_DpOT0_, symObjAddr: 0xE72C, symBinAddr: 0x100010DFC, symSize: 0xF0 }
  - { offsetInCU: 0x2326E, offset: 0x2326E, size: 0x8, addend: 0x0, symName: __ZNSt3__122__tree_key_value_typesImE9__get_keyB7v160006ERKm, symObjAddr: 0xE81C, symBinAddr: 0x100010EEC, symSize: 0x14 }
  - { offsetInCU: 0x23292, offset: 0x23292, size: 0x8, addend: 0x0, symName: __ZNSt3__16__treeImNS_4lessImEENS_9allocatorImEEE12__find_equalImEERPNS_16__tree_node_baseIPvEERPNS_15__tree_end_nodeISA_EERKT_, symObjAddr: 0xE830, symBinAddr: 0x100010F00, symSize: 0x184 }
  - { offsetInCU: 0x232FF, offset: 0x232FF, size: 0x8, addend: 0x0, symName: __ZNSt3__16__treeImNS_4lessImEENS_9allocatorImEEE16__construct_nodeIJRKmEEENS_10unique_ptrINS_11__tree_nodeImPvEENS_22__tree_node_destructorINS3_ISC_EEEEEEDpOT_, symObjAddr: 0xE9B4, symBinAddr: 0x100011084, symSize: 0x118 }
  - { offsetInCU: 0x23360, offset: 0x23360, size: 0x8, addend: 0x0, symName: __ZNSt3__16__treeImNS_4lessImEENS_9allocatorImEEE16__insert_node_atEPNS_15__tree_end_nodeIPNS_16__tree_node_baseIPvEEEERSA_SA_, symObjAddr: 0xEACC, symBinAddr: 0x10001119C, symSize: 0xCC }
  - { offsetInCU: 0x233B5, offset: 0x233B5, size: 0x8, addend: 0x0, symName: __ZNKSt3__110unique_ptrINS_11__tree_nodeImPvEENS_22__tree_node_destructorINS_9allocatorIS3_EEEEE3getB7v160006Ev, symObjAddr: 0xEB98, symBinAddr: 0x100011268, symSize: 0x28 }
  - { offsetInCU: 0x233DB, offset: 0x233DB, size: 0x8, addend: 0x0, symName: __ZNSt3__110unique_ptrINS_11__tree_nodeImPvEENS_22__tree_node_destructorINS_9allocatorIS3_EEEEE7releaseB7v160006Ev, symObjAddr: 0xEBC0, symBinAddr: 0x100011290, symSize: 0x44 }
  - { offsetInCU: 0x23410, offset: 0x23410, size: 0x8, addend: 0x0, symName: __ZNSt3__110unique_ptrINS_11__tree_nodeImPvEENS_22__tree_node_destructorINS_9allocatorIS3_EEEEED1B7v160006Ev, symObjAddr: 0xEC04, symBinAddr: 0x1000112D4, symSize: 0x2C }
  - { offsetInCU: 0x2343A, offset: 0x2343A, size: 0x8, addend: 0x0, symName: __ZNSt3__115__tree_iteratorImPNS_11__tree_nodeImPvEElEC1B7v160006ES4_, symObjAddr: 0xEC30, symBinAddr: 0x100011300, symSize: 0x34 }
  - { offsetInCU: 0x23473, offset: 0x23473, size: 0x8, addend: 0x0, symName: __ZNSt3__14pairINS_15__tree_iteratorImPNS_11__tree_nodeImPvEElEEbEC1B7v160006ERKS6_RKb, symObjAddr: 0xEC64, symBinAddr: 0x100011334, symSize: 0x3C }
  - { offsetInCU: 0x234B9, offset: 0x234B9, size: 0x8, addend: 0x0, symName: __ZNKSt3__16__treeImNS_4lessImEENS_9allocatorImEEE6__rootB7v160006Ev, symObjAddr: 0xECA0, symBinAddr: 0x100011370, symSize: 0x28 }
  - { offsetInCU: 0x234DF, offset: 0x234DF, size: 0x8, addend: 0x0, symName: __ZNKSt3__16__treeImNS_4lessImEENS_9allocatorImEEE10__root_ptrEv, symObjAddr: 0xECC8, symBinAddr: 0x100011398, symSize: 0x24 }
  - { offsetInCU: 0x23505, offset: 0x23505, size: 0x8, addend: 0x0, symName: __ZNSt3__16__treeImNS_4lessImEENS_9allocatorImEEE10value_compB7v160006Ev, symObjAddr: 0xECEC, symBinAddr: 0x1000113BC, symSize: 0x28 }
  - { offsetInCU: 0x2352B, offset: 0x2352B, size: 0x8, addend: 0x0, symName: __ZNKSt3__16__treeImNS_4lessImEENS_9allocatorImEEE10__end_nodeB7v160006Ev, symObjAddr: 0xED14, symBinAddr: 0x1000113E4, symSize: 0x2C }
  - { offsetInCU: 0x23551, offset: 0x23551, size: 0x8, addend: 0x0, symName: __ZNKSt3__117__compressed_pairINS_15__tree_end_nodeIPNS_16__tree_node_baseIPvEEEENS_9allocatorINS_11__tree_nodeImS3_EEEEE5firstB7v160006Ev, symObjAddr: 0xED40, symBinAddr: 0x100011410, symSize: 0x24 }
  - { offsetInCU: 0x23577, offset: 0x23577, size: 0x8, addend: 0x0, symName: __ZNSt3__117__compressed_pairImNS_4lessImEEE6secondB7v160006Ev, symObjAddr: 0xED64, symBinAddr: 0x100011434, symSize: 0x24 }
  - { offsetInCU: 0x2359D, offset: 0x2359D, size: 0x8, addend: 0x0, symName: __ZNSt3__122__compressed_pair_elemINS_4lessImEELi1ELb1EE5__getB7v160006Ev, symObjAddr: 0xED88, symBinAddr: 0x100011458, symSize: 0x14 }
  - { offsetInCU: 0x235C3, offset: 0x235C3, size: 0x8, addend: 0x0, symName: __ZNSt3__16__treeImNS_4lessImEENS_9allocatorImEEE12__node_allocB7v160006Ev, symObjAddr: 0xED9C, symBinAddr: 0x10001146C, symSize: 0x28 }
  - { offsetInCU: 0x235E9, offset: 0x235E9, size: 0x8, addend: 0x0, symName: __ZNSt3__116allocator_traitsINS_9allocatorINS_11__tree_nodeImPvEEEEE8allocateB7v160006ERS5_m, symObjAddr: 0xEDC4, symBinAddr: 0x100011494, symSize: 0x2C }
  - { offsetInCU: 0x2361C, offset: 0x2361C, size: 0x8, addend: 0x0, symName: __ZNSt3__122__tree_node_destructorINS_9allocatorINS_11__tree_nodeImPvEEEEEC1B7v160006ERS5_b, symObjAddr: 0xEDF0, symBinAddr: 0x1000114C0, symSize: 0x48 }
  - { offsetInCU: 0x23669, offset: 0x23669, size: 0x8, addend: 0x0, symName: __ZNSt3__110unique_ptrINS_11__tree_nodeImPvEENS_22__tree_node_destructorINS_9allocatorIS3_EEEEEC1B7v160006ILb1EvEEPS3_NS_16__dependent_typeINS_27__unique_ptr_deleter_sfinaeIS7_EEXT_EE20__good_rval_ref_typeE, symObjAddr: 0xEE38, symBinAddr: 0x100011508, symSize: 0x3C }
  - { offsetInCU: 0x236BA, offset: 0x236BA, size: 0x8, addend: 0x0, symName: __ZNSt3__116allocator_traitsINS_9allocatorINS_11__tree_nodeImPvEEEEE9constructB7v160006ImJRKmEvEEvRS5_PT_DpOT0_, symObjAddr: 0xEE74, symBinAddr: 0x100011544, symSize: 0x34 }
  - { offsetInCU: 0x23711, offset: 0x23711, size: 0x8, addend: 0x0, symName: __ZNSt3__122__tree_key_value_typesImE9__get_ptrB7v160006ERm, symObjAddr: 0xEEA8, symBinAddr: 0x100011578, symSize: 0x14 }
  - { offsetInCU: 0x23735, offset: 0x23735, size: 0x8, addend: 0x0, symName: __ZNKSt3__110unique_ptrINS_11__tree_nodeImPvEENS_22__tree_node_destructorINS_9allocatorIS3_EEEEEptB7v160006Ev, symObjAddr: 0xEEBC, symBinAddr: 0x10001158C, symSize: 0x28 }
  - { offsetInCU: 0x2375B, offset: 0x2375B, size: 0x8, addend: 0x0, symName: __ZNSt3__110unique_ptrINS_11__tree_nodeImPvEENS_22__tree_node_destructorINS_9allocatorIS3_EEEEE11get_deleterB7v160006Ev, symObjAddr: 0xEEE4, symBinAddr: 0x1000115B4, symSize: 0x24 }
  - { offsetInCU: 0x23781, offset: 0x23781, size: 0x8, addend: 0x0, symName: __ZNSt3__117__compressed_pairINS_15__tree_end_nodeIPNS_16__tree_node_baseIPvEEEENS_9allocatorINS_11__tree_nodeImS3_EEEEE6secondB7v160006Ev, symObjAddr: 0xEF08, symBinAddr: 0x1000115D8, symSize: 0x24 }
  - { offsetInCU: 0x237A7, offset: 0x237A7, size: 0x8, addend: 0x0, symName: __ZNSt3__122__compressed_pair_elemINS_9allocatorINS_11__tree_nodeImPvEEEELi1ELb1EE5__getB7v160006Ev, symObjAddr: 0xEF2C, symBinAddr: 0x1000115FC, symSize: 0x14 }
  - { offsetInCU: 0x237CD, offset: 0x237CD, size: 0x8, addend: 0x0, symName: __ZNSt3__19allocatorINS_11__tree_nodeImPvEEE8allocateB7v160006Em, symObjAddr: 0xEF40, symBinAddr: 0x100011610, symSize: 0x8C }
  - { offsetInCU: 0x2380B, offset: 0x2380B, size: 0x8, addend: 0x0, symName: __ZNSt3__116allocator_traitsINS_9allocatorINS_11__tree_nodeImPvEEEEE8max_sizeB7v160006IS5_vEEmRKS5_, symObjAddr: 0xEFCC, symBinAddr: 0x10001169C, symSize: 0x24 }
  - { offsetInCU: 0x23839, offset: 0x23839, size: 0x8, addend: 0x0, symName: __ZNKSt3__19allocatorINS_11__tree_nodeImPvEEE8max_sizeB7v160006Ev, symObjAddr: 0xEFF0, symBinAddr: 0x1000116C0, symSize: 0x18 }
  - { offsetInCU: 0x2385F, offset: 0x2385F, size: 0x8, addend: 0x0, symName: __ZNSt3__122__tree_node_destructorINS_9allocatorINS_11__tree_nodeImPvEEEEEC2B7v160006ERS5_b, symObjAddr: 0xF008, symBinAddr: 0x1000116D8, symSize: 0x38 }
  - { offsetInCU: 0x238A7, offset: 0x238A7, size: 0x8, addend: 0x0, symName: __ZNSt3__110unique_ptrINS_11__tree_nodeImPvEENS_22__tree_node_destructorINS_9allocatorIS3_EEEEEC2B7v160006ILb1EvEEPS3_NS_16__dependent_typeINS_27__unique_ptr_deleter_sfinaeIS7_EEXT_EE20__good_rval_ref_typeE, symObjAddr: 0xF040, symBinAddr: 0x100011710, symSize: 0x5C }
  - { offsetInCU: 0x238F8, offset: 0x238F8, size: 0x8, addend: 0x0, symName: __ZNSt3__117__compressed_pairIPNS_11__tree_nodeImPvEENS_22__tree_node_destructorINS_9allocatorIS3_EEEEEC1B7v160006IRS4_S8_EEOT_OT0_, symObjAddr: 0xF09C, symBinAddr: 0x10001176C, symSize: 0x3C }
  - { offsetInCU: 0x23950, offset: 0x23950, size: 0x8, addend: 0x0, symName: __ZNSt3__117__compressed_pairIPNS_11__tree_nodeImPvEENS_22__tree_node_destructorINS_9allocatorIS3_EEEEEC2B7v160006IRS4_S8_EEOT_OT0_, symObjAddr: 0xF0D8, symBinAddr: 0x1000117A8, symSize: 0x48 }
  - { offsetInCU: 0x239A8, offset: 0x239A8, size: 0x8, addend: 0x0, symName: __ZNSt3__122__compressed_pair_elemIPNS_11__tree_nodeImPvEELi0ELb0EEC2B7v160006IRS4_vEEOT_, symObjAddr: 0xF120, symBinAddr: 0x1000117F0, symSize: 0x24 }
  - { offsetInCU: 0x239EA, offset: 0x239EA, size: 0x8, addend: 0x0, symName: __ZNSt3__122__compressed_pair_elemINS_22__tree_node_destructorINS_9allocatorINS_11__tree_nodeImPvEEEEEELi1ELb0EEC2B7v160006IS7_vEEOT_, symObjAddr: 0xF144, symBinAddr: 0x100011814, symSize: 0x24 }
  - { offsetInCU: 0x23A2C, offset: 0x23A2C, size: 0x8, addend: 0x0, symName: __ZNSt3__19allocatorINS_11__tree_nodeImPvEEE9constructB7v160006ImJRKmEEEvPT_DpOT0_, symObjAddr: 0xF168, symBinAddr: 0x100011838, symSize: 0x28 }
  - { offsetInCU: 0x23A82, offset: 0x23A82, size: 0x8, addend: 0x0, symName: __ZNKSt3__117__compressed_pairIPNS_11__tree_nodeImPvEENS_22__tree_node_destructorINS_9allocatorIS3_EEEEE5firstB7v160006Ev, symObjAddr: 0xF190, symBinAddr: 0x100011860, symSize: 0x24 }
  - { offsetInCU: 0x23AA8, offset: 0x23AA8, size: 0x8, addend: 0x0, symName: __ZNKSt3__122__compressed_pair_elemIPNS_11__tree_nodeImPvEELi0ELb0EE5__getB7v160006Ev, symObjAddr: 0xF1B4, symBinAddr: 0x100011884, symSize: 0x14 }
  - { offsetInCU: 0x23ACE, offset: 0x23ACE, size: 0x8, addend: 0x0, symName: __ZNSt3__117__compressed_pairIPNS_11__tree_nodeImPvEENS_22__tree_node_destructorINS_9allocatorIS3_EEEEE6secondB7v160006Ev, symObjAddr: 0xF1C8, symBinAddr: 0x100011898, symSize: 0x28 }
  - { offsetInCU: 0x23AF4, offset: 0x23AF4, size: 0x8, addend: 0x0, symName: __ZNSt3__122__compressed_pair_elemINS_22__tree_node_destructorINS_9allocatorINS_11__tree_nodeImPvEEEEEELi1ELb0EE5__getB7v160006Ev, symObjAddr: 0xF1F0, symBinAddr: 0x1000118C0, symSize: 0x14 }
  - { offsetInCU: 0x23B1A, offset: 0x23B1A, size: 0x8, addend: 0x0, symName: __ZNSt3__16__treeImNS_4lessImEENS_9allocatorImEEE4sizeB7v160006Ev, symObjAddr: 0xF204, symBinAddr: 0x1000118D4, symSize: 0x28 }
  - { offsetInCU: 0x23B40, offset: 0x23B40, size: 0x8, addend: 0x0, symName: __ZNSt3__117__compressed_pairImNS_4lessImEEE5firstB7v160006Ev, symObjAddr: 0xF22C, symBinAddr: 0x1000118FC, symSize: 0x24 }
  - { offsetInCU: 0x23B66, offset: 0x23B66, size: 0x8, addend: 0x0, symName: __ZNSt3__117__compressed_pairIPNS_11__tree_nodeImPvEENS_22__tree_node_destructorINS_9allocatorIS3_EEEEE5firstB7v160006Ev, symObjAddr: 0xF250, symBinAddr: 0x100011920, symSize: 0x24 }
  - { offsetInCU: 0x23B8C, offset: 0x23B8C, size: 0x8, addend: 0x0, symName: __ZNSt3__122__compressed_pair_elemIPNS_11__tree_nodeImPvEELi0ELb0EE5__getB7v160006Ev, symObjAddr: 0xF274, symBinAddr: 0x100011944, symSize: 0x14 }
  - { offsetInCU: 0x23BB2, offset: 0x23BB2, size: 0x8, addend: 0x0, symName: __ZNSt3__110unique_ptrINS_11__tree_nodeImPvEENS_22__tree_node_destructorINS_9allocatorIS3_EEEEED2B7v160006Ev, symObjAddr: 0xF288, symBinAddr: 0x100011958, symSize: 0x30 }
  - { offsetInCU: 0x23BDC, offset: 0x23BDC, size: 0x8, addend: 0x0, symName: __ZNSt3__110unique_ptrINS_11__tree_nodeImPvEENS_22__tree_node_destructorINS_9allocatorIS3_EEEEE5resetB7v160006EPS3_, symObjAddr: 0xF2B8, symBinAddr: 0x100011988, symSize: 0x78 }
  - { offsetInCU: 0x23C20, offset: 0x23C20, size: 0x8, addend: 0x0, symName: __ZNSt3__122__tree_node_destructorINS_9allocatorINS_11__tree_nodeImPvEEEEEclB7v160006EPS4_, symObjAddr: 0xF330, symBinAddr: 0x100011A00, symSize: 0xA4 }
  - { offsetInCU: 0x23C55, offset: 0x23C55, size: 0x8, addend: 0x0, symName: __ZNSt3__116allocator_traitsINS_9allocatorINS_11__tree_nodeImPvEEEEE7destroyB7v160006ImvvEEvRS5_PT_, symObjAddr: 0xF3D4, symBinAddr: 0x100011AA4, symSize: 0x14 }
  - { offsetInCU: 0x23C90, offset: 0x23C90, size: 0x8, addend: 0x0, symName: __ZNSt3__116allocator_traitsINS_9allocatorINS_11__tree_nodeImPvEEEEE10deallocateB7v160006ERS5_PS4_m, symObjAddr: 0xF3E8, symBinAddr: 0x100011AB8, symSize: 0x34 }
  - { offsetInCU: 0x23CD2, offset: 0x23CD2, size: 0x8, addend: 0x0, symName: __ZNSt3__19allocatorINS_11__tree_nodeImPvEEE10deallocateB7v160006EPS3_m, symObjAddr: 0xF41C, symBinAddr: 0x100011AEC, symSize: 0x74 }
  - { offsetInCU: 0x23D14, offset: 0x23D14, size: 0x8, addend: 0x0, symName: __ZNSt3__115__tree_iteratorImPNS_11__tree_nodeImPvEElEC2B7v160006ES4_, symObjAddr: 0xF490, symBinAddr: 0x100011B60, symSize: 0x20 }
  - { offsetInCU: 0x23D4D, offset: 0x23D4D, size: 0x8, addend: 0x0, symName: __ZNSt3__14pairINS_15__tree_iteratorImPNS_11__tree_nodeImPvEElEEbEC2B7v160006ERKS6_RKb, symObjAddr: 0xF4B0, symBinAddr: 0x100011B80, symSize: 0x38 }
  - { offsetInCU: 0x23D93, offset: 0x23D93, size: 0x8, addend: 0x0, symName: __ZNSt3__14pairINS_21__tree_const_iteratorImPNS_11__tree_nodeImPvEElEEbEC2B7v160006INS_15__tree_iteratorImS5_lEEbEERKNS0_IT_T0_EE, symObjAddr: 0xF4E8, symBinAddr: 0x100011BB8, symSize: 0x50 }
  - { offsetInCU: 0x23DDD, offset: 0x23DDD, size: 0x8, addend: 0x0, symName: __ZNSt3__121__tree_const_iteratorImPNS_11__tree_nodeImPvEElEC1B7v160006ENS_15__tree_iteratorImS4_lEE, symObjAddr: 0xF538, symBinAddr: 0x100011C08, symSize: 0x34 }
  - { offsetInCU: 0x23E16, offset: 0x23E16, size: 0x8, addend: 0x0, symName: __ZNSt3__121__tree_const_iteratorImPNS_11__tree_nodeImPvEElEC2B7v160006ENS_15__tree_iteratorImS4_lEE, symObjAddr: 0xF56C, symBinAddr: 0x100011C3C, symSize: 0x20 }
  - { offsetInCU: 0x23E4F, offset: 0x23E4F, size: 0x8, addend: 0x0, symName: __ZNSt3__121__tree_const_iteratorINS_12__value_typeIm4PageEEPNS_11__tree_nodeIS3_PvEElEppB7v160006Ev, symObjAddr: 0xF58C, symBinAddr: 0x100011C5C, symSize: 0x38 }
  - { offsetInCU: 0x23E75, offset: 0x23E75, size: 0x8, addend: 0x0, symName: __ZNSt3__16__treeImNS_4lessImEENS_9allocatorImEEE5beginB7v160006Ev, symObjAddr: 0xF5C4, symBinAddr: 0x100011C94, symSize: 0x34 }
  - { offsetInCU: 0x23E9B, offset: 0x23E9B, size: 0x8, addend: 0x0, symName: __ZNSt3__115__tree_iteratorImPNS_11__tree_nodeImPvEElEC1B7v160006EPNS_15__tree_end_nodeIPNS_16__tree_node_baseIS2_EEEE, symObjAddr: 0xF5F8, symBinAddr: 0x100011CC8, symSize: 0x34 }
  - { offsetInCU: 0x23ED4, offset: 0x23ED4, size: 0x8, addend: 0x0, symName: __ZNSt3__115__tree_iteratorImPNS_11__tree_nodeImPvEElEC2B7v160006EPNS_15__tree_end_nodeIPNS_16__tree_node_baseIS2_EEEE, symObjAddr: 0xF62C, symBinAddr: 0x100011CFC, symSize: 0x20 }
  - { offsetInCU: 0x23F0D, offset: 0x23F0D, size: 0x8, addend: 0x0, symName: __ZNSt3__16__treeImNS_4lessImEENS_9allocatorImEEE3endB7v160006Ev, symObjAddr: 0xF64C, symBinAddr: 0x100011D1C, symSize: 0x34 }
  - { offsetInCU: 0x23F33, offset: 0x23F33, size: 0x8, addend: 0x0, symName: __ZNKSt3__16__treeINS_12__value_typeIm4PageEENS_19__map_value_compareImS3_NS_4lessImEELb1EEENS_9allocatorIS3_EEE4findImEENS_21__tree_const_iteratorIS3_PNS_11__tree_nodeIS3_PvEElEERKT_, symObjAddr: 0xF680, symBinAddr: 0x100011D50, symSize: 0xF8 }
  - { offsetInCU: 0x23F82, offset: 0x23F82, size: 0x8, addend: 0x0, symName: __ZNKSt3__16__treeINS_12__value_typeIm4PageEENS_19__map_value_compareImS3_NS_4lessImEELb1EEENS_9allocatorIS3_EEE13__lower_boundImEENS_21__tree_const_iteratorIS3_PNS_11__tree_nodeIS3_PvEElEERKT_SG_PNS_15__tree_end_nodeIPNS_16__tree_node_baseISE_EEEE, symObjAddr: 0xF778, symBinAddr: 0x100011E48, symSize: 0xA4 }
  - { offsetInCU: 0x23FE0, offset: 0x23FE0, size: 0x8, addend: 0x0, symName: __ZNKSt3__16__treeINS_12__value_typeIm4PageEENS_19__map_value_compareImS3_NS_4lessImEELb1EEENS_9allocatorIS3_EEE10value_compB7v160006Ev, symObjAddr: 0xF81C, symBinAddr: 0x100011EEC, symSize: 0x28 }
  - { offsetInCU: 0x24006, offset: 0x24006, size: 0x8, addend: 0x0, symName: __ZNKSt3__121__tree_const_iteratorINS_12__value_typeIm4PageEEPNS_11__tree_nodeIS3_PvEElEdeB7v160006Ev, symObjAddr: 0xF844, symBinAddr: 0x100011F14, symSize: 0x28 }
  - { offsetInCU: 0x2402C, offset: 0x2402C, size: 0x8, addend: 0x0, symName: __ZNKSt3__117__compressed_pairImNS_19__map_value_compareImNS_12__value_typeIm4PageEENS_4lessImEELb1EEEE6secondB7v160006Ev, symObjAddr: 0xF86C, symBinAddr: 0x100011F3C, symSize: 0x24 }
  - { offsetInCU: 0x24052, offset: 0x24052, size: 0x8, addend: 0x0, symName: __ZNKSt3__122__compressed_pair_elemINS_19__map_value_compareImNS_12__value_typeIm4PageEENS_4lessImEELb1EEELi1ELb1EE5__getB7v160006Ev, symObjAddr: 0xF890, symBinAddr: 0x100011F60, symSize: 0x14 }
  - { offsetInCU: 0x24078, offset: 0x24078, size: 0x8, addend: 0x0, symName: __ZNKSt3__121__tree_const_iteratorImPNS_11__tree_nodeImPvEElE8__get_npB7v160006Ev, symObjAddr: 0xF8A4, symBinAddr: 0x100011F74, symSize: 0x18 }
  - { offsetInCU: 0x2409E, offset: 0x2409E, size: 0x8, addend: 0x0, symName: __ZNSt3__16__treeImNS_4lessImEENS_9allocatorImEEE4findImEENS_15__tree_iteratorImPNS_11__tree_nodeImPvEElEERKT_, symObjAddr: 0xF8BC, symBinAddr: 0x100011F8C, symSize: 0xF8 }
  - { offsetInCU: 0x240ED, offset: 0x240ED, size: 0x8, addend: 0x0, symName: __ZNSt3__16__treeImNS_4lessImEENS_9allocatorImEEE13__lower_boundImEENS_15__tree_iteratorImPNS_11__tree_nodeImPvEElEERKT_SB_PNS_15__tree_end_nodeIPNS_16__tree_node_baseIS9_EEEE, symObjAddr: 0xF9B4, symBinAddr: 0x100012084, symSize: 0xA4 }
  - { offsetInCU: 0x2414B, offset: 0x2414B, size: 0x8, addend: 0x0, symName: __ZNKSt3__115__tree_iteratorImPNS_11__tree_nodeImPvEElEdeB7v160006Ev, symObjAddr: 0xFA8C, symBinAddr: 0x10001215C, symSize: 0x28 }
  - { offsetInCU: 0x24171, offset: 0x24171, size: 0x8, addend: 0x0, symName: __ZNKSt3__115__tree_iteratorImPNS_11__tree_nodeImPvEElE8__get_npB7v160006Ev, symObjAddr: 0xFAE4, symBinAddr: 0x1000121B4, symSize: 0x18 }
  - { offsetInCU: 0x24197, offset: 0x24197, size: 0x8, addend: 0x0, symName: __ZNSt3__13setImNS_4lessImEENS_9allocatorImEEED2B7v160006Ev, symObjAddr: 0xFAFC, symBinAddr: 0x1000121CC, symSize: 0x2C }
  - { offsetInCU: 0x241C1, offset: 0x241C1, size: 0x8, addend: 0x0, symName: __ZNSt3__16__treeImNS_4lessImEENS_9allocatorImEEED1Ev, symObjAddr: 0xFB28, symBinAddr: 0x1000121F8, symSize: 0x2C }
  - { offsetInCU: 0x241ED, offset: 0x241ED, size: 0x8, addend: 0x0, symName: __ZNSt3__16__treeImNS_4lessImEENS_9allocatorImEEED2Ev, symObjAddr: 0xFB54, symBinAddr: 0x100012224, symSize: 0x38 }
  - { offsetInCU: 0x24219, offset: 0x24219, size: 0x8, addend: 0x0, symName: __ZNSt3__16__treeImNS_4lessImEENS_9allocatorImEEE7destroyEPNS_11__tree_nodeImPvEE, symObjAddr: 0xFB8C, symBinAddr: 0x10001225C, symSize: 0x9C }
  - { offsetInCU: 0x2426D, offset: 0x2426D, size: 0x8, addend: 0x0, symName: __ZNK4Page16displayPageNoNumEv, symObjAddr: 0xFC28, symBinAddr: 0x1000122F8, symSize: 0x1A0 }
  - { offsetInCU: 0x242AF, offset: 0x242AF, size: 0x8, addend: 0x0, symName: __ZNKSt3__19basic_iosIcNS_11char_traitsIcEEE3eofB7v160006Ev, symObjAddr: 0xFDC8, symBinAddr: 0x100012498, symSize: 0x28 }
  - { offsetInCU: 0x242D5, offset: 0x242D5, size: 0x8, addend: 0x0, symName: __ZNKSt3__18ios_base3eofB7v160006Ev, symObjAddr: 0xFDF0, symBinAddr: 0x1000124C0, symSize: 0x24 }
  - { offsetInCU: 0x242FD, offset: 0x242FD, size: 0x8, addend: 0x0, symName: __ZN5StoryD2Ev, symObjAddr: 0xFE14, symBinAddr: 0x1000124E4, symSize: 0x68 }
  - { offsetInCU: 0x24327, offset: 0x24327, size: 0x8, addend: 0x0, symName: __ZNSt3__112basic_stringIcNS_11char_traitsIcEENS_9allocatorIcEEEC2B7v160006IDnEEPKc, symObjAddr: 0xFE7C, symBinAddr: 0x10001254C, symSize: 0x60 }
...
